(dp1
S'output'
p2
S"<type 'exceptions.NameError'> name 'iteritems' is not defined"
p3
sS'layer'
p4
S'E:\\Google Drive\\Projects\\web2py\\applications\\admin\\views\\default/design.html'
p5
sS'code'
p6
S'response.write(\'<!DOCTYPE html>\\n<html xmlns="http://www.w3.org/1999/xhtml" xml:lang="en" lang="en">\\n\\n    <head>\\n        <meta http-equiv="content-type" content="text/html; charset=utf-8" />\\n        <meta http-equiv="P3P" content="CP=\\\\"IDC DSP COR CURa ADMa OUR IND PHY ONL COM STA\\\\"" />\\n        <meta name="viewport" content="width=device-width, initial-scale=1.0">\\n        <title>\', escape=False)\nresponse.write(response.title or URL())\nresponse.write(\'</title>\\n        \', escape=False)\nresponse.files.append(URL(\'static\',\'css/bootstrap.min.css\'))\nresponse.files.append(URL(\'static\',\'css/bootstrap_essentials.css\'))\nresponse.files.append(URL(\'static\',\'css/bootstrap-responsive.min.css\'))\nresponse.write(\'\\n        \', escape=False)\nresponse.write(\'<script type="text/javascript"><!--\\n    // These variables are used by the web2py_ajax_init function in web2py_ajax.js (which is loaded below).\\n    \', escape=False)\nresponse.write(ASSIGNJS(\nw2p_ajax_confirm_message = T(\'Are you sure you want to delete this object?\'),\nw2p_ajax_disable_with_message = T(\'Working...\'),\nw2p_ajax_date_format = T(\'%Y-%m-%d\'),\nw2p_ajax_datetime_format = T(\'%Y-%m-%d %H:%M:%S\'),\najax_error_500 = T.M(\'An error occured, please [[reload %s]] the page\') % URL(args=request.args, vars=request.get_vars)\n))\nresponse.write(\'\\n    //--></script>\\n\', escape=False)\nresponse.files.insert(0,URL(\'static\',\'js/jquery.js\'))\nresponse.files.insert(1,URL(\'static\',\'css/calendar.css\'))\nresponse.files.insert(2,URL(\'static\',\'js/calendar.js\'))\nresponse.files.insert(3,URL(\'static\',\'js/web2py.js\'))\nresponse.include_meta()\nresponse.include_files()\nresponse.write(\'\\n\', escape=False)\nresponse.write(\'\\n    </head>\\n\\n    <body class="\', escape=False)\nresponse.write(T(\'direction: ltr\') == \'direction: rtl\' and \'RTLbody\' or \'\')\nresponse.write(\' \', escape=False)\nresponse.write(\'design\', escape=False)\nresponse.write(\'">\\n\\n        <!-- NAVBAR\\n        ============== -->\\n        <div id="header" class="navbar navbar-inverse navbar-fixed-top">\\n            <div class="navbar-inner">\\n                <div class="container-fluid">\\n                    <button type="button" class="btn btn-navbar" data-toggle="collapse" data-target=".nav-collapse">\\n                        <span class="icon-bar"></span>\\n                        <span class="icon-bar"></span>\\n                        <span class="icon-bar"></span>\\n                    </button>\\n                    <div id="start" class="brand_wrapper">\\n                        <a href="\', escape=False)\nresponse.write(URL(\'default\', \'index\'))\nresponse.write(\'" class="button brand" ><span>web2py&trade; \', escape=False)\nresponse.write(T(\'administrative interface\'))\nresponse.write(\'</span></a>\\n                    </div>\\n                    <div class="nav-collapse">\\n                        \', escape=False)\nif response.menu is not None:\n    response.write(\'\\n                        <ul id="menu" class="nav pull-right">\\n                            \', escape=False)\n    for _name,_active,_link in response.menu:\n        response.write(\'\\n                            <li>\', escape=False)\n        response.write(A(SPAN(_name), _href=_link, _class=_active and \'button select\' or \'button\'))\n        response.write(\'</li>\\n                            \', escape=False)\n        pass\n    response.write(\'\\n                        </ul>\\n                        \', escape=False)\n    pass\nresponse.write(\'\\n                    </div><!--/.nav-collapse -->\\n                </div><!-- /container-fluid -->\\n            </div><!-- /navbar-inner -->\\n        </div><!-- /#header -->\\n\\n        <!-- MAIN\\n        =========== -->\\n            <div id="\', escape=False)\nresponse.write(globals().get(\'main_id\', \'main\'))\nresponse.write(\'" class="container-fluid">\\n                <div id="main_inner" class="row-fluid">\\n                    <div class="span12">\\n                        <div class="w2p_flash alert">\', escape=False)\nresponse.write(response.flash or \'\')\nresponse.write(\'</div>\\n                        \', escape=False)\nresponse.write(\'\\n\', escape=False)\nimport re\nregex_space = re.compile(\'\\s+\')\ndef all(items):\n    return reduce(lambda a,b:a and b,items,True)\ndef peekfile(path,file,vars={},title=None):\n    args=(path,file) if \'app\' in vars else (app,path,file)\n    return A(file.replace(\'\\\\\\\\\',\'/\'),_title=title,_href=URL(\'peek\', args=args, vars=vars))\ndef editfile(path,file,vars={}):\n    args=(path,file) if \'app\' in vars else (app,path,file)\n    return A(SPAN(T(\'Edit\')),_class=\'button editbutton btn btn-mini\',_href=URL(\'edit\', args=args, vars=vars))\ndef testfile(path,file):\n    return A(TAG[\'\'](IMG(_src=URL(\'static\', \'images/test_icon.png\'), _alt=T(\'test\')),\nSPAN(T("Run tests in this file (to run all files, you may also use the button labelled \'test\')"))),\n_class=\'icon test\',\n_href=URL(\'test\', args=(app, file)),\n_rel="tooltip",\n**{\'_data-placement\':\'right\',\n\'_data-original-title\':T("Run tests in this file (to run all files, you may also use the button labelled \'test\')")})\ndef editlanguagefile(path,file,vars={}):\n    return A(SPAN(T(\'Edit\')),_class=\'button editbutton btn btn-mini\',_href=URL(\'edit_language\', args=(app, path, file), vars=vars))\ndef editpluralsfile(path,file,vars={}):\n    return A(SPAN(T(\'Edit\')),_class=\'button editbutton btn btn-mini\',_href=URL(\'edit_plurals\', args=(app, path, file), vars=vars))\ndef file_upload_form(location, anchor=None):\n    form=FORM(\n    LABEL(T("upload file:")),\n    INPUT(_type="file",_name="file"),\n    LABEL(T("and rename it:")),\n    INPUT(_type="text",_name="filename",requires=IS_NOT_EMPTY(),_class=""),\n    DIV(TAG[\'BUTTON\'](T("Upload"),_type="submit",_class="btn"),_class="controls"),\n    INPUT(_type="hidden",_name="location",_value=location),\n    INPUT(_type="hidden",_name="token",_value=session.token),\n    INPUT(_type="hidden",_name="sender",_value=URL(\'design\',args=app, anchor=anchor)),\n    _action=URL(\'upload_file\'),\n    _class="generatedbyw2p well well-small")\n    return form\ndef file_create_form(location, anchor=None, helptext=""):\n    form=FORM(\n    LABEL(T("create file with filename:")),\n    INPUT(_type="text",_name="filename",requires=IS_NOT_EMPTY(),_class=\'\'),\n    TAG[\'SMALL\'](helptext,_class="help-block"),\n    DIV(TAG[\'BUTTON\'](T("Create"),_type="submit",_class="btn"),_class="controls"),\n    INPUT(_type="hidden",_name="location",_value=location),\n    INPUT(_type="hidden",_name="sender",_value=URL(\'design\',args=app)),\n    INPUT(_type="hidden",_name="token",_value=session.token),\n    INPUT(_type="hidden",_name="id",_value=anchor),\n    _action=URL(\'create_file\'),\n    _class="generatedbyw2p well well-small")\n    return form\ndef upload_plugin_form(app, anchor=None):\n    form=FORM(\n    LABEL(T("upload plugin file:")),\n    INPUT(_type="file",_name="pluginfile"),\n    INPUT(_type="hidden",_name="id",_value=anchor),\n    INPUT(_type="hidden",_name="token",_value=session.token),\n    DIV(TAG[\'BUTTON\'](T("Upload"),_type="submit",_class="btn"),_class="controls"),\n    _class="generatedbyw2p well well-small")\n    return form\ndef deletefile(arglist, vars={}):\n    vars.update({\'sender\':request.function+\'/\'+app})\n    return A(TAG[\'\'](IMG(_src=URL(\'static\', \'images/delete_icon.png\')),\nSPAN(T(\'Delete this file (you will be asked to confirm deletion)\'))),\n_href=URL(\'delete\',args=arglist,vars=vars),\n_class=\'icon delete\',\n_rel="tooltip",\n**{\'_data-placement\':\'right\',\n\'_data-original-title\':T(\'Delete this file (you will be asked to confirm deletion)\')})\nresponse.write(\'\\n\', escape=False)\nresponse.write(\'\\n<!-- begin "design" block -->\\n\\n<h2>\', escape=False)\nresponse.write(T("Edit application"))\nresponse.write(\' "\', escape=False)\nresponse.write(A(app,_href=URL(app,\'default\',\'index\'),_target="_blank"))\nresponse.write(\'"</h2>\\n\\n<!-- COLLAPSE/JUMP-TO BUTTONS -->\\n<div class="right-full controls">\\n    <p class="buttons-row">\\n    \', escape=False)\nresponse.write(searchbox(\'search\'))\nresponse.write(\'\\n    <a class="button special btn btn-inverse" href="#" onclick="jQuery(\\\'h3>span\\\').click();return false"><span>\', escape=False)\nresponse.write(T("collapse/expand all"))\nresponse.write(\'</span></a>\\n    <span class="buttongroup">\\n    \', escape=False)\nresponse.write(button(\'#models\', T("models")))\nresponse.write(\'\\n    \', escape=False)\nresponse.write(button(\'#controllers\', T("controllers")))\nresponse.write(\'\\n    \', escape=False)\nresponse.write(button(\'#views\', T("views")))\nresponse.write(\'\\n    \', escape=False)\nresponse.write(button(\'#languages\', T("languages")))\nresponse.write(\'\\n    \', escape=False)\nresponse.write(button(\'#static\', T("static")))\nresponse.write(\'\\n    \', escape=False)\nresponse.write(button(\'#modules\', T("modules")))\nresponse.write(\'\\n    \', escape=False)\nresponse.write(button(\'#private\', T("private files")))\nresponse.write(\'\\n    \', escape=False)\nresponse.write(button(\'#plugins\', T("plugins")))\nresponse.write(\'\\n    </span>\\n    </p>\\n</div>\\n\\n<!-- MODELS -->\\n<h3 id="_models" rel="pagebookmark">\\n    <span class="component" onclick="collapse(\\\'models_inner\\\');">\', escape=False)\nresponse.write(T("Models"))\nresponse.write(\'</span>\\n    <a href="#models" rel="tooltip" data-placement="right" data-original-title="\', escape=False)\nresponse.write(T(\'The data representation, define database tables and sets\'))\nresponse.write(\'">\\n    \', escape=False)\nresponse.write(helpicon())\nresponse.write(\'\\n    <span>\', escape=False)\nresponse.write(T("The data representation, define database tables and sets"))\nresponse.write(\'</span>\\n    </a><span id="models" class="hashstick">&nbsp;</span><a href="#" class="tophashlink btn btn-mini btn-warning"><span>top</span></a>\\n</h3>\\n<div id="models_inner" class="component_contents">\\n    \', escape=False)\nif not models:\n    response.write(\'<p><strong>\', escape=False)\n    response.write(T("There are no models"))\n    response.write(\'</strong></p>\', escape=False)\nelse:\n    response.write(\'\\n    <div class="controls comptools">\\n        \', escape=False)\n    response.write(button(URL(a=app,c=\'appadmin\',f=\'index\'), T(\'database administration\')))\n    response.write(\'\\n        \', escape=False)\n    if os.access(os.path.join(request.folder,\'..\',app,\'databases\',\'sql.log\'),os.R_OK):\n        response.write(\'\\n            \', escape=False)\n        response.write(button(URL(\'peek/%s/databases/sql.log\'%app), \'sql.log\'))\n        response.write(\'\\n        \', escape=False)\n        pass\n    response.write(\'\\n        \', escape=False)\n    if os.access(os.path.join(request.folder,\'..\',\'admin\',\'static\',\'js\',\'d3_graph.js\'),os.R_OK):\n        response.write(\'\\n                \', escape=False)\n        response.write(button(URL(a=app, c=\'appadmin\',f=\'d3_graph_model\'), T(\'graph model\')))\n        response.write(\'\\n        \', escape=False)\n        pass\n    response.write(\'\\n    </div>\\n    <ul class="unstyled act_edit">\\n        \', escape=False)\n    for m in models:\n        response.write(\'\\n            \', escape=False)\n        id="models__"+m.replace(\'.\',\'__\')\n        response.write(\'\\n        <li id="\', escape=False)\n        response.write(\'_\'+id)\n        response.write(\'" rel="pagebookmark"><span id="\', escape=False)\n        response.write(id)\n        response.write(\'" class="hashstick">&nbsp;</span>\\n            <span class="filetools controls">\\n                \', escape=False)\n        response.write(editfile(\'models\',m, dict(id=id)))\n        response.write(\'\\n                \', escape=False)\n        response.write(deletefile([app, \'models\', m], dict(id=id, id2=\'models\')))\n        response.write(\'\\n            </span>\\n            <span class="file">\\n                \', escape=False)\n        response.write(peekfile(\'models\',m, dict(id=id)))\n        response.write(\'\\n            </span>\\n            <span class="extras">\\n                \', escape=False)\n        if len(defines[m]):\n            response.write(T("defines tables"))\n            response.write(\' \', escape=False)\n            pass\n        response.write(XML(b\', \'.join([B(table).xml() for table in defines[m]])))\n        response.write(\'\\n            </span>\\n        </li>\\n        \', escape=False)\n        pass\n    response.write(\'\\n    </ul>\\n    \', escape=False)\n    pass\nresponse.write(\'\\n    <div class="controls formfield">\\n      <button onclick="jQuery(\\\'#form1\\\').slideToggle()" class="btn btn-mini">\', escape=False)\nresponse.write(T(\'Create\'))\nresponse.write(\'</button>\\n      <div id="form1" class="row-fluid" style="display:none">\\n        <div class="span3">\', escape=False)\nresponse.write(file_create_form(\'%s/models/\' % app, \'models\'))\nresponse.write(\'</div>\\n      </div>\\n    </div>\\n</div>\\n<!-- FIND CONTROLLER FUNCTIONS -->\\n\', escape=False)\ncontroller_functions=[]\nfor c in controllers: controller_functions+=[c[:-3]+\'/%s.html\'%x for x in functions[c]]\nresponse.write(\'\\n\\n<!-- CONTROLLERS -->\\n<h3 id="_controllers" rel="pagebookmark">\\n    <span class="component" onclick="collapse(\\\'controllers_inner\\\');">\', escape=False)\nresponse.write(T("Controllers"))\nresponse.write(\'</span>\\n    <a href="#controllers" rel="tooltip" data-placement="right" data-original-title="\', escape=False)\nresponse.write(T(\'The application logic, each URL path is mapped in one exposed function in the controller\'))\nresponse.write(\'">\\n    \', escape=False)\nresponse.write(helpicon())\nresponse.write(\'\\n    <span>\', escape=False)\nresponse.write(T("The application logic, each URL path is mapped in one exposed function in the controller"))\nresponse.write(\'</span>\\n    </a><span id="controllers" class="hashstick">&nbsp;</span><a href="#" class="tophashlink btn btn-mini btn-warning"><span>top</span></a>\\n</h3>\\n<div id="controllers_inner" class="component_contents">\\n    \', escape=False)\nif not controllers:\n    response.write(\'<p><strong>\', escape=False)\n    response.write(T("There are no controllers"))\n    response.write(\'</strong></p>\', escape=False)\nelse:\n    response.write(\'\\n    <div class="controls comptools">\\n        \', escape=False)\n    response.write(button(URL(\'test\',args=app), T("test")))\n    response.write(\'\\n        \', escape=False)\n    response.write(button(URL(\'edit\',args=[app,\'cron\',\'crontab\']), T("crontab")))\n    response.write(\'\\n    </div>\\n    <ul class="unstyled act_edit">\\n        \', escape=False)\n    for c in controllers:\n        response.write(\'\\n        \', escape=False)\n        id="controllers__"+c.replace(\'.\',\'__\')\n        response.write(\'\\n        <li id="\', escape=False)\n        response.write(\'_\'+id)\n        response.write(\'" rel="pagebookmark"><span id="\', escape=False)\n        response.write(id)\n        response.write(\'" class="hashstick">&nbsp;</span>\\n        <span class="filetools controls">\\n        \', escape=False)\n        response.write(editfile(\'controllers\',c, dict(id=id)))\n        response.write(\'\\n        \', escape=False)\n        response.write(deletefile([app, \'controllers\', c], dict(id=id, id2=\'controllers\')))\n        response.write(\'\\n        \', escape=False)\n        response.write(testfile(\'controllers\',c))\n        response.write(\'\\n        </span>\\n        <span class="file">\\n        \', escape=False)\n        response.write(peekfile(\'controllers\',c, dict(id=id)))\n        response.write(\'\\n        </span>\\n        <span class="extras celled">\\n            \', escape=False)\n        if functions[c]:\n            response.write(T("exposes"))\n            pass\n        response.write(\' \', escape=False)\n        response.write(XML(b\', \'.join([A(f,_href=URL(a=app,c=c[:-3],f=f)).xml() for f in functions[c]])))\n        response.write(\'\\n        </span>\\n        </li>\\n        \', escape=False)\n        pass\n    response.write(\'\\n    </ul>\\n    \', escape=False)\n    pass\nresponse.write(\'\\n    <div class="controls formfield">\\n      <button onclick="jQuery(\\\'#form2\\\').slideToggle()" class="btn btn-mini">\', escape=False)\nresponse.write(T(\'Create\'))\nresponse.write(\'</button>\\n      <div id="form2" class="row-fluid" style="display:none">\\n        <div class="span3">\', escape=False)\nresponse.write(file_create_form(\'%s/controllers/\' % app, \'controllers\'))\nresponse.write(\'</div>\\n      </div>\\n    </div>\\n</div>\\n\\n<!-- VIEWS -->\\n<h3 id="_views" rel="pagebookmark">\\n    <span class="component" onclick="collapse(\\\'views_inner\\\');">\', escape=False)\nresponse.write(T("Views"))\nresponse.write(\'</span>\\n    <a href="#views" rel="tooltip" data-placement="right" data-original-title="\', escape=False)\nresponse.write(T(\'The presentations layer, views are also known as templates\'))\nresponse.write(\'">\\n    \', escape=False)\nresponse.write(helpicon())\nresponse.write(\'\\n    <span>\', escape=False)\nresponse.write(T("The presentations layer, views are also known as templates"))\nresponse.write(\'</span>\\n    </a><span id="views" class="hashstick">&nbsp;</span><a href="#" class="tophashlink btn btn-mini btn-warning"><span>top</span></a>\\n</h3>\\n<div id="views_inner" class="component_contents">\\n  \', escape=False)\nif not views:\n    response.write(\'<p><strong>\', escape=False)\n    response.write(T("There are no views"))\n    response.write(\'</strong></p>\', escape=False)\nelse:\n    response.write(\'\\n    <div class="controls comptools">\\n        \', escape=False)\n    response.write(button(LAYOUTS_APP, T("Download layouts from repository")))\n    response.write(\'\\n    </div>\\n    <ul class="unstyled act_edit">\\n        \', escape=False)\n    for c in views:\n        response.write(\'\\n            \', escape=False)\n        id="views__"+c.replace(\'/\',\'__\').replace(\'.\',\'__\')\n        response.write(\'\\n        <li id="\', escape=False)\n        response.write(\'_\'+id)\n        response.write(\'" rel="pagebookmark"><span id="\', escape=False)\n        response.write(id)\n        response.write(\'" class="hashstick">&nbsp;</span>\\n            <span class="filetools controls">\\n                \', escape=False)\n        response.write(editfile(\'views\',c, dict(id=id)))\n        response.write(\'\\n                \', escape=False)\n        response.write(deletefile([app, \'views\', c], dict(id=id, id2=\'views\')))\n        response.write(\'\\n            </span>\\n            <span class="file">\\n                \', escape=False)\n        response.write(peekfile(\'views\',c, dict(id=id)))\n        response.write(\'\\n            </span>\\n            <span class="extras celled celled-one">\\n                \', escape=False)\n        if c in extend:\n            response.write(T("extends"))\n            response.write(\' <b>\', escape=False)\n            response.write(extend[c])\n            response.write(\'</b> \', escape=False)\n            pass\n        response.write(\'\\n                \', escape=False)\n        if include[c]:\n            response.write(T("includes"))\n            response.write(\' \', escape=False)\n            pass\n        response.write(XML(b\', \'.join([B(f).xml() for f in include[c]])))\n        response.write(\'\\n            </span>\\n        </li>\\n        \', escape=False)\n        pass\n    response.write(\'\\n    </ul>\\n    \', escape=False)\n    pass\nresponse.write(\'\\n    <div class="controls formfield">\\n      <button onclick="jQuery(\\\'#form3\\\').slideToggle()" class="btn btn-mini">\', escape=False)\nresponse.write(T(\'Create\'))\nresponse.write(\'</button>\\n      <div id="form3" class="row-fluid" style="display:none">\\n        <div class="span3">\', escape=False)\nresponse.write(file_create_form(\'%s/views/\' % app, \'views\'))\nresponse.write(\'</div>\\n      </div>\\n    </div>\\n</div>\\n\\n<!-- LANGUAGES -->\\n<h3 id="_languages" rel="pagebookmark">\\n    <span class="component" onclick="collapse(\\\'languages_inner\\\');">\', escape=False)\nresponse.write(T("Languages"))\nresponse.write(\'</span>\\n    <a href="#languages" rel="tooltip" data-placement="right" data-original-title="\', escape=False)\nresponse.write(T(\'Translation strings for the application\'))\nresponse.write(\'">\\n    \', escape=False)\nresponse.write(helpicon())\nresponse.write(\'\\n    <span>\', escape=False)\nresponse.write(T("Translation strings for the application"))\nresponse.write(\'</span>\\n    </a><span id="languages" class="hashstick">&nbsp;</span><a href="#" class="tophashlink btn btn-mini btn-warning"><span>top</span></a>\\n</h3>\\n<div id="languages_inner" class="component_contents">\\n    \', escape=False)\nif not languages:\n    response.write(\'<p><strong>\', escape=False)\n    response.write(T("There are no translators, only default language is supported"))\n    response.write(\'</strong></p>\', escape=False)\nelse:\n    response.write(\'\\n    <div class="controls comptools">\\n        \', escape=False)\n    response.write(button(URL(\'update_languages/\'+app), T(\'update all languages\')))\n    response.write(\'\\n    </div>\\n    <ul class="unstyled act_edit">\\n        \', escape=False)\n    for lang in sorted(languages):\n        file = lang+\'.py\'\n        id = "languages__"+file.replace(\'.\',\'__\')\n        response.write(\'\\n        <li id="\', escape=False)\n        response.write(\'_\'+id)\n        response.write(\'" rel="pagebookmark" class="li-row"><span id="\', escape=False)\n        response.write(id)\n        response.write(\'" class="hashstick">&nbsp;</span>\\n            <span class="li-controls">\\n                <span class="filetools controls">\\n                 \', escape=False)\n        response.write(editlanguagefile(\'languages\',file))\n        response.write(\'\\n                 \', escape=False)\n        response.write(deletefile([app, \'languages\', file], dict(id=id, id2=\'languages\')))\n        response.write(\'\\n                </span>\\n                <span class="">\\n                  \', escape=False)\n        response.write(peekfile(\'languages\',file, dict(id=id)))\n        response.write(\'\\n                </span>\\n            </span> <!-- /li-row -->\\n            <span class="extras celled">\\n                (\\n                \', escape=False)\n        response.write(T("Plural-Forms:"))\n        response.write(\'\\n                \', escape=False)\n        p=languages[lang][3:7]\n        response.write(\'\\n                \', escape=False)\n        if p[2] == \'default\':\n            response.write("\\n                   <span class=\'error text-error\'>", escape=False)\n            response.write(T("rules are not defined"))\n            response.write(\'</span> \', escape=False)\n            response.write(T.M("(file **gluon/contrib/plural_rules/%s.py** is not found)",lang[:2]))\n            response.write(\'\\n                \', escape=False)\n        else:\n            response.write(\'\\n                 \', escape=False)\n            if p[3] == 1:\n                response.write(\'\\n                   \', escape=False)\n                response.write(B(T("are not used")))\n                response.write(\'\\n                 \', escape=False)\n            else:\n                response.write(\'\\n                   \', escape=False)\n                pfile=p[0]\n                response.write(\'\\n                    \', escape=False)\n                if p[1]!=0:\n                    response.write(\'<span style="display:inline-block;margin-top:-10px;">\\n                     <span class="filetools controls">\\n                       \', escape=False)\n                    response.write(editpluralsfile(\'languages\',pfile,dict(nplurals=p[3])))\n                    response.write(\'\\n                     </span>\\n                     <span class="file">\\n                        \', escape=False)\n                    response.write(peekfile(\'languages\',pfile,dict(id=id)))\n                    response.write(\'\\n                     </span></span>\\n                   \', escape=False)\n                else:\n                    response.write(\'\\n                      <b>\', escape=False)\n                    response.write(T("are not used yet"))\n                    response.write(\'</b>\\n                    \', escape=False)\n                    pass\n                response.write(\'\\n                  \', escape=False)\n                pass\n            response.write(\'\\n                \', escape=False)\n            pass\n        response.write(\'\\n                )\\n            </span>\\n        </li>\\n        \', escape=False)\n        pass\n    response.write(\'\\n    </ul>\\n    \', escape=False)\n    pass\nresponse.write(\'\\n    <div class="controls formfield">\\n      <button onclick="jQuery(\\\'#form4\\\').slideToggle()" class="btn btn-mini">\', escape=False)\nresponse.write(T(\'Create\'))\nresponse.write(\'</button>\\n      <div id="form4" class="row-fluid" style="display:none">\\n        <div class="span3">\', escape=False)\nresponse.write(file_create_form(\'%s/languages/\' % app, \'languages\', T(\'(something like "it-it")\')))\nresponse.write(\'</div>\\n      </div>\\n    </div>\\n</div>\\n\\n<!-- STATIC -->\\n<h3 id="_static" rel="pagebookmark">\\n    <span class="component" onclick="collapse(\\\'static_inner\\\');">\', escape=False)\nresponse.write(T("Static"))\nresponse.write(\'</span>\\n    <a href="#static" rel="tooltip" data-placement="right" data-original-title="\', escape=False)\nresponse.write(T(\'These files are served without processing, your images go here\'))\nresponse.write(\'">\\n    \', escape=False)\nresponse.write(helpicon())\nresponse.write(\'\\n    <span>\', escape=False)\nresponse.write(T("These files are served without processing, your images go here"))\nresponse.write(\'</span>\\n    </a><span id="static" class="hashstick">&nbsp;</span><a href="#" class="tophashlink btn btn-mini btn-warning"><span>top</span></a>\\n</h3>\\n<div id="static_inner" class="component_contents">\\n    \', escape=False)\nif not statics:\n    response.write(\'<p><strong>\', escape=False)\n    response.write(T("There are no static files"))\n    response.write(\'</strong></p>\', escape=False)\nelse:\n    response.write(\'\\n    <ul class="unstyled act_edit">\\n    \', escape=False)\n    path=[]\n    for file in statics+[\'\']:\n        items=file.split(\'/\')\n        file_path=items[:-1]\n        filename=items[-1]\n        while path!=file_path:\n            if len(file_path)>=len(path) and all([v==file_path[k] for k,v in enumerate(path)]):\n                path.append(file_path[len(path)])\n                thispath = regex_space.sub(\'-\', \'static__\'+\'__\'.join(path))\n                response.write(\'\\n        <li class="folder"><i>&nbsp;</i>\\n            <a href="javascript:collapse(\\\'\', escape=False)\n                response.write(thispath)\n                response.write(\'\\\');" class="file">\', escape=False)\n                response.write(path[-1])\n                response.write(\'/</a>\\n            <ul id="\', escape=False)\n                response.write(thispath)\n                response.write(\'" style="display: none;" class="sublist">\', escape=False)\n            else:\n                path = path[:-1]\n                response.write(\'\\n        </ul></li>\\n    \', escape=False)\n                pass\n            pass\n        if filename:\n            response.write(\'\\n        <li>\\n            <span class="filetools controls">\\n                \', escape=False)\n            response.write(editfile(\'static\',file, dict(id="static")))\n            response.write(\' \', escape=False)\n            response.write(deletefile([app,\'static\',file], dict(id="static",id2="static")))\n            response.write(\'\\n            </span>\\n            <span class="file">\\n                <a href="\', escape=False)\n            response.write(URL(a=app,c=\'static\',f=file))\n            response.write(\'">\', escape=False)\n            response.write(filename)\n            response.write(\'</a>\\n            </span>\\n        </li>\', escape=False)\n            pass\n        pass\n    response.write(\'\\n    </ul>\\n    \', escape=False)\n    pass\nresponse.write(\'\\n    <div class="controls formfield">\\n      <button onclick="jQuery(\\\'#form5\\\').slideToggle()" class="btn btn-mini">\', escape=False)\nresponse.write(T(\'Create/Upload\'))\nresponse.write(\'</button>\\n      <div id="form5" class="row-fluid" style="display:none">\\n        <div class="span3">\', escape=False)\nresponse.write(file_create_form(\'%s/static/\' % app, \'static\'))\nresponse.write(\'<em>\', escape=False)\nresponse.write(T(\'or alternatively\'))\nresponse.write(\'</em></div>\\n        <div class="span3">\', escape=False)\nresponse.write(file_upload_form(\'%s/static/\' % app, \'static\'))\nresponse.write(\'</div>\\n      </div>\\n    </div>\\n</div>\\n\\n<!-- MODULES -->\\n<h3 id="_modules" rel="pagebookmark">\\n    <span class="component" onclick="collapse(\\\'modules_inner\\\');">\', escape=False)\nresponse.write(T("Modules"))\nresponse.write(\'</span>\\n    <a href="#modules" rel="tooltip" data-placement="right" data-original-title="\', escape=False)\nresponse.write(T(\'Additional code for your application\'))\nresponse.write(\'">\\n    \', escape=False)\nresponse.write(helpicon())\nresponse.write(\'\\n    <span>\', escape=False)\nresponse.write(T("Additional code for your application"))\nresponse.write(\'</span>\\n    </a><span id="modules" class="hashstick">&nbsp;</span><a href="#" class="tophashlink btn btn-mini btn-warning"><span>top</span></a>\\n</h3>\\n<div id="modules_inner" class="component_contents">\\n    \', escape=False)\nif not modules:\n    response.write(\'<p><strong>\', escape=False)\n    response.write(T("There are no modules"))\n    response.write(\'</strong></p>\', escape=False)\nelse:\n    response.write(\'\\n    <ul class="unstyled act_edit">\\n        \', escape=False)\n    for m in modules:\n        response.write(\'\\n            \', escape=False)\n        id="modules__"+m.replace(\'/\',\'__\').replace(\'.\',\'__\')\n        response.write(\'\\n        <li id="\', escape=False)\n        response.write(\'_\'+id)\n        response.write(\'" rel="pagebookmark"><span id="\', escape=False)\n        response.write(id)\n        response.write(\'" class="hashstick">&nbsp;</span>\\n            <span class="filetols controls">\\n                \', escape=False)\n        response.write(editfile(\'modules\',m,dict(id=id)))\n        response.write(\'\\n                \', escape=False)\n        if m!=\'__init__.py\':\n            response.write(\'\\n                    \', escape=False)\n            response.write(deletefile([app, \'modules\', m], dict(id=id, id2=\'modules\')))\n            response.write(\'\\n                \', escape=False)\n            pass\n        response.write(\'\\n            </span>\\n            <span class="file">\\n                \', escape=False)\n        response.write(peekfile(\'modules\',m, dict(id=id)))\n        response.write(\'\\n            </span>\\n        </li>\\n        \', escape=False)\n        pass\n    response.write(\'\\n    </ul>\\n    \', escape=False)\n    pass\nresponse.write(\'\\n    <div class="controls formfield">\\n      <button onclick="jQuery(\\\'#form6\\\').slideToggle()" class="btn btn-mini">\', escape=False)\nresponse.write(T(\'Create/Upload\'))\nresponse.write(\'</button>\\n      <div id="form6" class="row-fluid" style="display:none">\\n        <div class="span3">\', escape=False)\nresponse.write(file_create_form(\'%s/modules/\' % app, \'modules\'))\nresponse.write(\'<em>\', escape=False)\nresponse.write(T(\'or alternatively\'))\nresponse.write(\'</em></div>\\n        <div class="span3">\', escape=False)\nresponse.write(file_upload_form(\'%s/modules/\' % app, \'modules\'))\nresponse.write(\'</div>\\n      </div>\\n    </div>\\n</div>\\n\\n<!-- PRIVATE -->\\n<h3 id="_private" rel="pagebookmark">\\n    <span class="component" onclick="collapse(\\\'private_inner\\\');">\', escape=False)\nresponse.write(T("Private files"))\nresponse.write(\'</span>\\n    <a href="#private" rel="tooltip" data-placement="right" data-original-title="\', escape=False)\nresponse.write(T(\'These files are not served, they are only available from within your app\'))\nresponse.write(\'">\\n    \', escape=False)\nresponse.write(helpicon())\nresponse.write(\'\\n    <span>\', escape=False)\nresponse.write(T("These files are not served, they are only available from within your app"))\nresponse.write(\'</span>\\n    </a><span id="private" class="hashstick">&nbsp;</span><a href="#" class="tophashlink btn btn-mini btn-warning"><span>top</span></a>\\n</h3>\\n<div id="private_inner" class="component_contents">\\n    \', escape=False)\nif not privates:\n    response.write(\'<p><strong>\', escape=False)\n    response.write(T("There are no private files"))\n    response.write(\'</strong></p>\', escape=False)\nelse:\n    response.write(\'\\n    <ul class="unstyled act_edit">\\n        \', escape=False)\n    path=[]\n    for file in privates+[\'\']:\n        items=file.split(\'/\')\n        file_path=items[:-1]\n        filename=items[-1]\n        while path!=file_path:\n            if len(file_path)>=len(path) and all([v==file_path[k] for k,v in enumerate(path)]):\n                path.append(file_path[len(path)])\n                thispath=\'private__\'+\'__\'.join(path)\n                response.write(\'\\n        <li class="folder">\\n            <a href="javascript:collapse(\\\'\', escape=False)\n                response.write(thispath)\n                response.write(\'\\\');" class="file">\', escape=False)\n                response.write(path[-1])\n                response.write(\'/</a>\\n            <ul id="\', escape=False)\n                response.write(thispath)\n                response.write(\'" style="display: none;" class="sublist">\', escape=False)\n            else:\n                path = path[:-1]\n                response.write(\'\\n            </ul>\\n        </li>\\n        \', escape=False)\n                pass\n            pass\n        if filename:\n            response.write(\'\\n        <li>\\n            <span class="filetools controls">\\n                \', escape=False)\n            response.write(editfile(\'private\',file, dict(id="private")))\n            response.write(\' \', escape=False)\n            response.write(deletefile([app,\'private\',file], dict(id="private",id2="private")))\n            response.write(\'\\n            </span>\\n            <span class="file">\\n                \', escape=False)\n            response.write(peekfile(\'private\',file, dict(id="private")))\n            response.write(\'\\n            </span>\\n        </li>\', escape=False)\n            pass\n        pass\n    response.write(\'\\n    \', escape=False)\n    pass\nresponse.write(\'\\n    </ul>\\n    <div class="controls formfield">\\n      <button onclick="jQuery(\\\'#form7\\\').slideToggle()" class="btn btn-mini">\', escape=False)\nresponse.write(T(\'Create/Upload\'))\nresponse.write(\'</button>\\n      <div id="form7" class="row-fluid" style="display:none">\\n        <div class="span3">\', escape=False)\nresponse.write(file_create_form(\'%s/private/\' % app, \'private\'))\nresponse.write(\'<em>\', escape=False)\nresponse.write(T(\'or alternatively\'))\nresponse.write(\'</em></div>\\n        <div class="span3">\', escape=False)\nresponse.write(file_upload_form(\'%s/private/\' % app, \'private\'))\nresponse.write(\'</div>\\n      </div>\\n    </div>\\n</div>\\n\\n<!-- PLUGINS -->\\n<h3 id="_plugins" rel="pagebookmark">\\n    <span class="component" onclick="collapse(\\\'plugins_inner\\\');">\', escape=False)\nresponse.write(T("Plugins"))\nresponse.write(\'</span>\\n    <a href="#plugins" rel="tooltip" data-placement="right" data-original-title="\', escape=False)\nresponse.write(T(\'To create a plugin, name a file/folder plugin_[name]\'))\nresponse.write(\'">\\n    \', escape=False)\nresponse.write(helpicon())\nresponse.write(\'\\n    <span>\', escape=False)\nresponse.write(T("To create a plugin, name a file/folder plugin_[name]"))\nresponse.write(\'</span>\\n    </a><span id="plugins" class="hashstick">&nbsp;</span><a href="#" class="tophashlink btn btn-mini btn-warning"><span>top</span></a>\\n</h3>\\n<div id="plugins_inner" class="component_contents">\\n    \', escape=False)\nif plugins:\n    response.write(\'\\n    <ul class="unstyled act_edit">\\n        \', escape=False)\n    for plugin in plugins:\n        response.write(\'\\n            \', escape=False)\n        id="plugins__"+plugin.replace(\'/\',\'__\').replace(\'.\',\'__\')\n        response.write(\'\\n        <li id="\', escape=False)\n        response.write(id)\n        response.write(\'">\\n            \', escape=False)\n        response.write(A(\'plugin_%s\' % plugin, _class=\'file\', _href=URL(\'plugin\', args=[app, plugin], vars=dict(id=id, id2=\'plugins\'))))\n        response.write(\'\\n        </li>\\n        \', escape=False)\n        pass\n    response.write(\'\\n    </ul>\\n    \', escape=False)\nelse:\n    response.write(\'\\n    <p><strong>\', escape=False)\n    response.write(T(\'There are no plugins\'))\n    response.write(\'</strong></p>\\n    \', escape=False)\n    pass\nresponse.write(\'\\n    <div class="controls comptools">\\n        \', escape=False)\nresponse.write(button(URL(c="default", f="plugins", args=[app,]), T(\'Download plugins from repository\')))\nresponse.write(\'\\n    </div>\\n    <div class="controls formfield">\\n      <button onclick="jQuery(\\\'#form8\\\').slideToggle()" class="btn btn-mini">\', escape=False)\nresponse.write(T(\'Upload\'))\nresponse.write(\'</button>\\n      <div id="form8" class="row-fluid" style="display:none">\\n        <div class="row-fluid">\\n          <div class="span3">\', escape=False)\nresponse.write(upload_plugin_form(app, \'plugins\'))\nresponse.write("</div>\\n        </div>\\n      </div>\\n</div>\\n\\n<script>\\nfunction filter_files() {\\n      if(jQuery(\'#search\').val()){\\n        jQuery.getJSON(\'", escape=False)\nresponse.write(URL(\'search\',args=request.args))\nresponse.write(\'?keywords=\\\'+escape(jQuery(\\\'#search\\\').val()),null,function(data, textStatus, xhr){\\n          jQuery(\\\'.component_contents li, .formfield, .comptools\\\').hide();\\n          files=data[\\\'files\\\'];\\n          message=data[\\\'message\\\'];\\n          for(var i=0; i<files.length; i++)\\n            jQuery(\\\'li#_\\\'+files[i].replace(/\\\\//g,\\\'__\\\').replace(\\\'.\\\',\\\'__\\\')).slideDown();\\n          jQuery(\\\'.w2p_flash\\\').html(message).slideDown();\\n          });\\n      } else {\\n          jQuery(\\\'.component_contents li, .formfield, .comptools\\\').slideDown();\\n          jQuery(\\\'.w2p_flash\\\').html(\\\'\\\').hide();\\n      }\\n}\\njQuery(document).ready(function(){\\n   jQuery(\\\'#search\\\').keyup(function(e){\\n      var code = (e.keyCode ? e.keyCode : e.which);\\n      if(code==13) filter_files();\\n   });\\n   jQuery(\\\'#search_start\\\').click(function(e){ filter_files(); });\\n});\\n</script>\\n<!-- end "design" block -->\\n\', escape=False)\nresponse.write(\'\\n                    </div><!-- /main span12 -->\\n                </div><!-- /main row-fluid -->\\n            </div><!-- /#main -->\\n\\n        <!-- FOOTER\\n        ============== -->\\n        \', escape=False)\nresponse.write(\'\\n        <footer id="footer" class="fixed">\\n            <p><span>\', escape=False)\nresponse.write(T(\'Powered by\'))\nresponse.write(\' \', escape=False)\nresponse.write(A(\'web2py\', _href=\'http://www.web2py.com\'))\nresponse.write(\'&trade; \', escape=False)\nresponse.write(T(\'created by\'))\nresponse.write(\' Massimo Di Pierro &copy;2007-\', escape=False)\nresponse.write(request.now.year)\nresponse.write(\'\\n                \', escape=False)\nif hasattr(T,\'get_possible_languages_info\'):\n    response.write(\'\\n                - \', escape=False)\n    response.write(T(\'Admin language\'))\n    response.write(\'</span>\\n                <select name="adminlanguage" onchange="var date = new Date();cookieDate=date.setTime(date.getTime()+(100*24*60*60*1000));document.cookie=\\\'adminLanguage=\\\'+this.options[this.selectedIndex].id+\\\'; expires=\\\'+cookieDate+\\\'; path=/\\\';window.location.reload()">\\n                    \', escape=False)\n    for langinfo in sorted([(code,info[1]) for code,info in iteritems(T.get_possible_languages_info()) if code != \'default\']):\n        response.write(\'\\n                    <option \', escape=False)\n        response.write(T.accepted_language==langinfo[0] and \'selected\' or \'\')\n        response.write(\' \', escape=False)\n        response.write(\'id=\'+langinfo[0])\n        response.write(\' >\', escape=False)\n        response.write(langinfo[1])\n        response.write(\'</option>\\n                    \', escape=False)\n        pass\n    response.write(\'\\n                </select>\\n                \', escape=False)\nelse:\n    response.write(\'\\n                </span>\', escape=False)\n    pass\nresponse.write(\'\\n            </p>\\n        </footer><!-- /#footer -->\\n        \', escape=False)\nresponse.write(\'\\n\\n        <!-- BS JAVASCRIPT\\n        ====================== -->\\n        <script src="\', escape=False)\nresponse.write(URL(\'static\',\'js/bootstrap.min.js\'))\nresponse.write(\'"></script>\\n        <script type="text/javascript">\\n            jQuery(document).ready(function(){\\n                jQuery("[rel=tooltip]").tooltip();\\n                jQuery(":input").attr("autocomplete","off");\\n            });\\n        </script>\\n        <script>\\n            // ====================\\n            // upload input mask\\n            // ====================\\n\\n            function FileSelectHandler(e) {\\n                e.stopPropagation();\\n                var filename = e.target.value.split(/\\\\\\\\|\\\\//).pop();\\n                jQuery(\\\'#fileselect>span\\\').removeClass(\\\'txtPlaceholder\\\').text(filename)\\n            }\\n\\n            jQuery(document).ready(function(){\\n                var iupload = jQuery(\\\'#appupdate_file\\\');\\n                var ow = 300, oh = 20;\\n                var iplaceholder = jQuery(\\\'<span class="txtPlaceholder">\', escape=False)\nresponse.write(T("no package selected"))\nresponse.write(\'</span>\\\'),\\n                    iuploadbtn = jQuery(\\\'<button class="btn btn-inverse btn-mini uploadbtn"><i class="icon-white icon-circle-arrow-up"></i></button>\\\');\\n                iupload\\n                    .addClass(\\\'masked\\\')\\n                    .wrap(\\\'<div id="fileselect" style="width:\\\'+ow+\\\'px;height:\\\'+oh+\\\'px"></div>\\\')\\n                    .on(\\\'change\\\', function(event){FileSelectHandler(event)});\\n                jQuery(\\\'#fileselect\\\').append(iplaceholder, iuploadbtn);\\n            });\\n        </script>\\n\\n        \', escape=False)\nif request.function in (\'index\',\'site\'):\n    response.write(\'\\n        <a style="position:fixed;bottom:0;left:0;z-index:1000" href="https://groups.google.com/forum/?fromgroups#!forum/web2py" target="_blank">\\n            <!-- http://webchat.freenode.net/?channels=web2py" //-->\\n            <img src="\', escape=False)\n    response.write(URL(\'static\',\'images/questions.png\'))\n    response.write(\'" />\\n        </a>\\n        \', escape=False)\n    pass\nresponse.write(\'\\n    </body>\\n</html>\\n\', escape=False)'
p7
sS'snapshot'
p8
(dp9
S'exception'
p10
(dp11
S'__hash__'
p12
S"<method-wrapper '__hash__' of exceptions.NameError object>"
p13
sS'__setattr__'
p14
S"<method-wrapper '__setattr__' of exceptions.NameError object>"
p15
sS'__reduce_ex__'
p16
S'<built-in method __reduce_ex__ of exceptions.NameError object>'
p17
sS'__getslice__'
p18
S"<method-wrapper '__getslice__' of exceptions.NameError object>"
p19
sS'__getitem__'
p20
S"<method-wrapper '__getitem__' of exceptions.NameError object>"
p21
sS'__setstate__'
p22
S'<built-in method __setstate__ of exceptions.NameError object>'
p23
sS'__reduce__'
p24
S'<built-in method __reduce__ of exceptions.NameError object>'
p25
sS'__str__'
p26
S"<method-wrapper '__str__' of exceptions.NameError object>"
p27
sS'__format__'
p28
S'<built-in method __format__ of exceptions.NameError object>'
p29
sS'__getattribute__'
p30
S"<method-wrapper '__getattribute__' of exceptions.NameError object>"
p31
sS'__class__'
p32
S"<type 'exceptions.NameError'>"
p33
sS'__unicode__'
p34
S'<built-in method __unicode__ of exceptions.NameError object>'
p35
sS'__delattr__'
p36
S"<method-wrapper '__delattr__' of exceptions.NameError object>"
p37
sS'__subclasshook__'
p38
S'<built-in method __subclasshook__ of type object>'
p39
sS'__repr__'
p40
S"<method-wrapper '__repr__' of exceptions.NameError object>"
p41
sS'args'
p42
S'("name \'iteritems\' is not defined",)'
p43
sS'__dict__'
p44
S'{}'
p45
sS'__sizeof__'
p46
S'<built-in method __sizeof__ of exceptions.NameError object>'
p47
sS'__doc__'
p48
S"'Name not found globally.'"
p49
sS'__init__'
p50
S"<method-wrapper '__init__' of exceptions.NameError object>"
p51
sS'__new__'
p52
S'<built-in method __new__ of type object>'
p53
ssS'evalue'
p54
S"name 'iteritems' is not defined"
p55
sS'request'
p56
cgluon.html
XML_unpickle
p57
(S'sT]\x00\x00<div><table><tr><td style="font-weight:bold;vertical-align:top;">ajax</td><td style="vertical-align:top;">:</td><td><div>False</div></td></tr><tr><td style="font-weight:bold;vertical-align:top;">application</td><td style="vertical-align:top;">:</td><td><div>admin</div></td></tr><tr><td style="font-weight:bold;vertical-align:top;">args</td><td style="vertical-align:top;">:</td><td><div><table><tr><td><div>UGC</div></td></tr></table></div></td></tr><tr><td style="font-weight:bold;vertical-align:top;">cid</td><td style="vertical-align:top;">:</td><td><div>None</div></td></tr><tr><td style="font-weight:bold;vertical-align:top;">client</td><td style="vertical-align:top;">:</td><td><div>127.0.0.1</div></td></tr><tr><td style="font-weight:bold;vertical-align:top;">controller</td><td style="vertical-align:top;">:</td><td><div>default</div></td></tr><tr><td style="font-weight:bold;vertical-align:top;">cookies</td><td style="vertical-align:top;">:</td><td><div><table><tr><td style="font-weight:bold;vertical-align:top;">session_id_admin</td><td style="vertical-align:top;">:</td><td><div>127.0.0.1-5ef0fba7-c2e0-4e5c-8901-f4418065d0fa<table><tr><td style="font-weight:bold;vertical-align:top;">comment</td><td style="vertical-align:top;">:</td><td><div></div></td></tr><tr><td style="font-weight:bold;vertical-align:top;">domain</td><td style="vertical-align:top;">:</td><td><div></div></td></tr><tr><td style="font-weight:bold;vertical-align:top;">expires</td><td style="vertical-align:top;">:</td><td><div></div></td></tr><tr><td style="font-weight:bold;vertical-align:top;">httponly</td><td style="vertical-align:top;">:</td><td><div></div></td></tr><tr><td style="font-weight:bold;vertical-align:top;">max-age</td><td style="vertical-align:top;">:</td><td><div></div></td></tr><tr><td style="font-weight:bold;vertical-align:top;">path</td><td style="vertical-align:top;">:</td><td><div></div></td></tr><tr><td style="font-weight:bold;vertical-align:top;">secure</td><td style="vertical-align:top;">:</td><td><div></div></td></tr><tr><td style="font-weight:bold;vertical-align:top;">version</td><td style="vertical-align:top;">:</td><td><div></div></td></tr></table></div></td></tr><tr><td style="font-weight:bold;vertical-align:top;">session_id_ugc</td><td style="vertical-align:top;">:</td><td><div>127.0.0.1-8157c33f-2a8d-412b-962c-629d462224c0<table><tr><td style="font-weight:bold;vertical-align:top;">comment</td><td style="vertical-align:top;">:</td><td><div></div></td></tr><tr><td style="font-weight:bold;vertical-align:top;">domain</td><td style="vertical-align:top;">:</td><td><div></div></td></tr><tr><td style="font-weight:bold;vertical-align:top;">expires</td><td style="vertical-align:top;">:</td><td><div></div></td></tr><tr><td style="font-weight:bold;vertical-align:top;">httponly</td><td style="vertical-align:top;">:</td><td><div></div></td></tr><tr><td style="font-weight:bold;vertical-align:top;">max-age</td><td style="vertical-align:top;">:</td><td><div></div></td></tr><tr><td style="font-weight:bold;vertical-align:top;">path</td><td style="vertical-align:top;">:</td><td><div></div></td></tr><tr><td style="font-weight:bold;vertical-align:top;">secure</td><td style="vertical-align:top;">:</td><td><div></div></td></tr><tr><td style="font-weight:bold;vertical-align:top;">version</td><td style="vertical-align:top;">:</td><td><div></div></td></tr></table></div></td></tr><tr><td style="font-weight:bold;vertical-align:top;">session_id_welcome</td><td style="vertical-align:top;">:</td><td><div>127.0.0.1-bb987ae8-1860-480d-a744-b3bbd47e34ab<table><tr><td style="font-weight:bold;vertical-align:top;">comment</td><td style="vertical-align:top;">:</td><td><div></div></td></tr><tr><td style="font-weight:bold;vertical-align:top;">domain</td><td style="vertical-align:top;">:</td><td><div></div></td></tr><tr><td style="font-weight:bold;vertical-align:top;">expires</td><td style="vertical-align:top;">:</td><td><div></div></td></tr><tr><td style="font-weight:bold;vertical-align:top;">httponly</td><td style="vertical-align:top;">:</td><td><div></div></td></tr><tr><td style="font-weight:bold;vertical-align:top;">max-age</td><td style="vertical-align:top;">:</td><td><div></div></td></tr><tr><td style="font-weight:bold;vertical-align:top;">path</td><td style="vertical-align:top;">:</td><td><div></div></td></tr><tr><td style="font-weight:bold;vertical-align:top;">secure</td><td style="vertical-align:top;">:</td><td><div></div></td></tr><tr><td style="font-weight:bold;vertical-align:top;">version</td><td style="vertical-align:top;">:</td><td><div></div></td></tr></table></div></td></tr></table></div></td></tr><tr><td style="font-weight:bold;vertical-align:top;">env</td><td style="vertical-align:top;">:</td><td><div><table><tr><td style="font-weight:bold;vertical-align:top;">HTTP_ACCEPT</td><td style="vertical-align:top;">:</td><td><div>text/html,application/xhtml+xml,application/xml;q=0.9,image/webp,image/apng,*/*;q=0.8</div></td></tr><tr><td style="font-weight:bold;vertical-align:top;">HTTP_ACCEPT_ENCODING</td><td style="vertical-align:top;">:</td><td><div>gzip, deflate, br</div></td></tr><tr><td style="font-weight:bold;vertical-align:top;">HTTP_ACCEPT_LANGUAGE</td><td style="vertical-align:top;">:</td><td><div>en-US,en;q=0.9,hi;q=0.8</div></td></tr><tr><td style="font-weight:bold;vertical-align:top;">HTTP_CONNECTION</td><td style="vertical-align:top;">:</td><td><div>keep-alive</div></td></tr><tr><td style="font-weight:bold;vertical-align:top;">HTTP_COOKIE</td><td style="vertical-align:top;">:</td><td><div>session_id_welcome=127.0.0.1-bb987ae8-1860-480d-a744-b3bbd47e34ab; session_id_admin=127.0.0.1-5ef0fba7-c2e0-4e5c-8901-f4418065d0fa; session_id_ugc=127.0.0.1-8157c33f-2a8d-412b-962c-629d462224c0</div></td></tr><tr><td style="font-weight:bold;vertical-align:top;">HTTP_DNT</td><td style="vertical-align:top;">:</td><td><div>1</div></td></tr><tr><td style="font-weight:bold;vertical-align:top;">HTTP_HOST</td><td style="vertical-align:top;">:</td><td><div>127.0.0.1:8000</div></td></tr><tr><td style="font-weight:bold;vertical-align:top;">HTTP_REFERER</td><td style="vertical-align:top;">:</td><td><div>http://127.0.0.1:8000/admin/default/site</div></td></tr><tr><td style="font-weight:bold;vertical-align:top;">HTTP_UPGRADE_INSECURE_REQUESTS</td><td style="vertical-align:top;">:</td><td><div>1</div></td></tr><tr><td style="font-weight:bold;vertical-align:top;">HTTP_USER_AGENT</td><td style="vertical-align:top;">:</td><td><div>Mozilla/5.0 (Windows NT 6.1; Win64; x64) AppleWebKit/537.36 (KHTML, like Gecko) Chrome/63.0.3239.84 Safari/537.36</div></td></tr><tr><td style="font-weight:bold;vertical-align:top;">PATH_INFO</td><td style="vertical-align:top;">:</td><td><div>/admin/default/design/UGC</div></td></tr><tr><td style="font-weight:bold;vertical-align:top;">QUERY_STRING</td><td style="vertical-align:top;">:</td><td><div></div></td></tr><tr><td style="font-weight:bold;vertical-align:top;">REMOTE_ADDR</td><td style="vertical-align:top;">:</td><td><div>127.0.0.1</div></td></tr><tr><td style="font-weight:bold;vertical-align:top;">REMOTE_PORT</td><td style="vertical-align:top;">:</td><td><div>51135</div></td></tr><tr><td style="font-weight:bold;vertical-align:top;">REQUEST_METHOD</td><td style="vertical-align:top;">:</td><td><div>GET</div></td></tr><tr><td style="font-weight:bold;vertical-align:top;">SCRIPT_NAME</td><td style="vertical-align:top;">:</td><td><div></div></td></tr><tr><td style="font-weight:bold;vertical-align:top;">SERVER_NAME</td><td style="vertical-align:top;">:</td><td><div>htc-PC</div></td></tr><tr><td style="font-weight:bold;vertical-align:top;">SERVER_PORT</td><td style="vertical-align:top;">:</td><td><div>8000</div></td></tr><tr><td style="font-weight:bold;vertical-align:top;">SERVER_PROTOCOL</td><td style="vertical-align:top;">:</td><td><div>HTTP/1.1</div></td></tr><tr><td style="font-weight:bold;vertical-align:top;">SERVER_SOFTWARE</td><td style="vertical-align:top;">:</td><td><div>Rocket 1.2.6</div></td></tr><tr><td style="font-weight:bold;vertical-align:top;">app_folders</td><td style="vertical-align:top;">:</td><td><div>set([&#x27;E:\\\\Google Drive\\\\Projects\\\\web2py\\\\applications\\\\UGC\\\\&#x27;, &#x27;E:\\\\Google Drive\\\\Projects\\\\web2py\\\\applications\\\\admin\\\\&#x27;, &#x27;E:\\\\Google Drive\\\\Projects\\\\web2py\\\\applications\\\\welcome\\\\&#x27;])</div></td></tr><tr><td style="font-weight:bold;vertical-align:top;">applications_parent</td><td style="vertical-align:top;">:</td><td><div>E:\\Google Drive\\Projects\\web2py</div></td></tr><tr><td style="font-weight:bold;vertical-align:top;">cmd_args</td><td style="vertical-align:top;">:</td><td><div><table></table></div></td></tr><tr><td style="font-weight:bold;vertical-align:top;">cmd_options</td><td style="vertical-align:top;">:</td><td><div>&lt;Values at 0x3139940: {&#x27;verbose&#x27;: False, &#x27;ip&#x27;: &#x27;127.0.0.1&#x27;, &#x27;debuglevel&#x27;: 30, &#x27;with_scheduler&#x27;: False, &#x27;shutdown_timeout&#x27;: 5, &#x27;taskbar&#x27;: False, &#x27;with_coverage&#x27;: False, &#x27;pid_filename&#x27;: &#x27;httpserver.pid&#x27;, &#x27;maxthreads&#x27;: None, &#x27;softcron&#x27;: False, &#x27;server_name&#x27;: &#x27;htc-PC&#x27;, &#x27;bpython&#x27;: False, &#x27;nogui&#x27;: False, &#x27;port&#x27;: 8000, &#x27;print_errors&#x27;: False, &#x27;extcron&#x27;: False, &#x27;runcron&#x27;: False, &#x27;run_system_tests&#x27;: False, &#x27;test&#x27;: None, &#x27;folder&#x27;: &#x27;E:\\\\Google Drive\\\\Projects\\\\web2py&#x27;, &#x27;config&#x27;: &#x27;&#x27;, &#x27;minthreads&#x27;: None, &#x27;shell&#x27;: None, &#x27;run&#x27;: &#x27;&#x27;, &#x27;log_filename&#x27;: &#x27;httpserver.log&#x27;, &#x27;profiler_dir&#x27;: None, &#x27;args&#x27;: [&#x27;&#x27;], &#x27;socket_timeout&#x27;: 5, &#x27;ssl_ca_certificate&#x27;: None, &#x27;scheduler&#x27;: None, &#x27;interfaces&#x27;: None, &#x27;ssl_private_key&#x27;: &#x27;&#x27;, &#x27;gae&#x27;: None, &#x27;password&#x27;: &#x27;******&#x27;, &#x27;request_queue_size&#x27;: 5, &#x27;ssl_certificate&#x27;: &#x27;&#x27;, &#x27;cronjob&#x27;: False, &#x27;numthreads&#x27;: None, &#x27;quiet&#x27;: False, &#x27;import_models&#x27;: False, &#x27;timeout&#x27;: 10, &#x27;plain&#x27;: False, &#x27;nobanner&#x27;: False}&gt;</div></td></tr><tr><td style="font-weight:bold;vertical-align:top;">db_sessions</td><td style="vertical-align:top;">:</td><td><div>set([])</div></td></tr><tr><td style="font-weight:bold;vertical-align:top;">debugging</td><td style="vertical-align:top;">:</td><td><div>False</div></td></tr><tr><td style="font-weight:bold;vertical-align:top;">gluon_parent</td><td style="vertical-align:top;">:</td><td><div>E:\\Google Drive\\Projects\\web2py</div></td></tr><tr><td style="font-weight:bold;vertical-align:top;">http_accept</td><td style="vertical-align:top;">:</td><td><div>text/html,application/xhtml+xml,application/xml;q=0.9,image/webp,image/apng,*/*;q=0.8</div></td></tr><tr><td style="font-weight:bold;vertical-align:top;">http_accept_encoding</td><td style="vertical-align:top;">:</td><td><div>gzip, deflate, br</div></td></tr><tr><td style="font-weight:bold;vertical-align:top;">http_accept_language</td><td style="vertical-align:top;">:</td><td><div>en-US,en;q=0.9,hi;q=0.8</div></td></tr><tr><td style="font-weight:bold;vertical-align:top;">http_connection</td><td style="vertical-align:top;">:</td><td><div>keep-alive</div></td></tr><tr><td style="font-weight:bold;vertical-align:top;">http_cookie</td><td style="vertical-align:top;">:</td><td><div>session_id_welcome=127.0.0.1-bb987ae8-1860-480d-a744-b3bbd47e34ab; session_id_admin=127.0.0.1-5ef0fba7-c2e0-4e5c-8901-f4418065d0fa; session_id_ugc=127.0.0.1-8157c33f-2a8d-412b-962c-629d462224c0</div></td></tr><tr><td style="font-weight:bold;vertical-align:top;">http_dnt</td><td style="vertical-align:top;">:</td><td><div>1</div></td></tr><tr><td style="font-weight:bold;vertical-align:top;">http_host</td><td style="vertical-align:top;">:</td><td><div>127.0.0.1:8000</div></td></tr><tr><td style="font-weight:bold;vertical-align:top;">http_referer</td><td style="vertical-align:top;">:</td><td><div>http://127.0.0.1:8000/admin/default/site</div></td></tr><tr><td style="font-weight:bold;vertical-align:top;">http_upgrade_insecure_requests</td><td style="vertical-align:top;">:</td><td><div>1</div></td></tr><tr><td style="font-weight:bold;vertical-align:top;">http_user_agent</td><td style="vertical-align:top;">:</td><td><div>Mozilla/5.0 (Windows NT 6.1; Win64; x64) AppleWebKit/537.36 (KHTML, like Gecko) Chrome/63.0.3239.84 Safari/537.36</div></td></tr><tr><td style="font-weight:bold;vertical-align:top;">is_jython</td><td style="vertical-align:top;">:</td><td><div>False</div></td></tr><tr><td style="font-weight:bold;vertical-align:top;">is_pypy</td><td style="vertical-align:top;">:</td><td><div>False</div></td></tr><tr><td style="font-weight:bold;vertical-align:top;">is_source</td><td style="vertical-align:top;">:</td><td><div>True</div></td></tr><tr><td style="font-weight:bold;vertical-align:top;">local_hosts</td><td style="vertical-align:top;">:</td><td><div><table><tr><td><div>::ffff:127.0.0.1</div></td></tr><tr><td><div>fe80::18e0:99e5:7103:6aa8%12</div></td></tr><tr><td><div>htc-PC</div></td></tr><tr><td><div>192.168.1.3</div></td></tr><tr><td><div>::1</div></td></tr><tr><td><div>127.0.0.1</div></td></tr></table></div></td></tr><tr><td style="font-weight:bold;vertical-align:top;">path_info</td><td style="vertical-align:top;">:</td><td><div>/admin/default/design/UGC</div></td></tr><tr><td style="font-weight:bold;vertical-align:top;">query_string</td><td style="vertical-align:top;">:</td><td><div></div></td></tr><tr><td style="font-weight:bold;vertical-align:top;">remote_addr</td><td style="vertical-align:top;">:</td><td><div>127.0.0.1</div></td></tr><tr><td style="font-weight:bold;vertical-align:top;">remote_port</td><td style="vertical-align:top;">:</td><td><div>51135</div></td></tr><tr><td style="font-weight:bold;vertical-align:top;">request_method</td><td style="vertical-align:top;">:</td><td><div>GET</div></td></tr><tr><td style="font-weight:bold;vertical-align:top;">request_uri</td><td style="vertical-align:top;">:</td><td><div>/admin/default/design/UGC</div></td></tr><tr><td style="font-weight:bold;vertical-align:top;">script_name</td><td style="vertical-align:top;">:</td><td><div></div></td></tr><tr><td style="font-weight:bold;vertical-align:top;">server_name</td><td style="vertical-align:top;">:</td><td><div>htc-PC</div></td></tr><tr><td style="font-weight:bold;vertical-align:top;">server_port</td><td style="vertical-align:top;">:</td><td><div>8000</div></td></tr><tr><td style="font-weight:bold;vertical-align:top;">server_protocol</td><td style="vertical-align:top;">:</td><td><div>HTTP/1.1</div></td></tr><tr><td style="font-weight:bold;vertical-align:top;">server_software</td><td style="vertical-align:top;">:</td><td><div>Rocket 1.2.6</div></td></tr><tr><td style="font-weight:bold;vertical-align:top;">web2py_path</td><td style="vertical-align:top;">:</td><td><div>E:\\Google Drive\\Projects\\web2py</div></td></tr><tr><td style="font-weight:bold;vertical-align:top;">web2py_version</td><td style="vertical-align:top;">:</td><td><div>2.14.6-stable+timestamp.2016.05.10.00.21.47</div></td></tr><tr><td style="font-weight:bold;vertical-align:top;">wsgi.errors</td><td style="vertical-align:top;">:</td><td><div>&lt;open file &#x27;&lt;stderr&gt;&#x27;, mode &#x27;w&#x27; at 0x01DBD0D0&gt;</div></td></tr><tr><td style="font-weight:bold;vertical-align:top;">wsgi.file_wrapper</td><td style="vertical-align:top;">:</td><td><div>&lt;class wsgiref.util.FileWrapper at 0x030EDED8&gt;</div></td></tr><tr><td style="font-weight:bold;vertical-align:top;">wsgi.input</td><td style="vertical-align:top;">:</td><td><div>&lt;socket._fileobject object at 0x135307B0&gt;</div></td></tr><tr><td style="font-weight:bold;vertical-align:top;">wsgi.multiprocess</td><td style="vertical-align:top;">:</td><td><div>False</div></td></tr><tr><td style="font-weight:bold;vertical-align:top;">wsgi.multithread</td><td style="vertical-align:top;">:</td><td><div>True</div></td></tr><tr><td style="font-weight:bold;vertical-align:top;">wsgi.run_once</td><td style="vertical-align:top;">:</td><td><div>False</div></td></tr><tr><td style="font-weight:bold;vertical-align:top;">wsgi.url_scheme</td><td style="vertical-align:top;">:</td><td><div>http</div></td></tr><tr><td style="font-weight:bold;vertical-align:top;">wsgi.version</td><td style="vertical-align:top;">:</td><td><div><table><tr><td><div>1</div></td></tr><tr><td><div>0</div></td></tr></table></div></td></tr><tr><td style="font-weight:bold;vertical-align:top;">wsgi_errors</td><td style="vertical-align:top;">:</td><td><div>&lt;open file &#x27;&lt;stderr&gt;&#x27;, mode &#x27;w&#x27; at 0x01DBD0D0&gt;</div></td></tr><tr><td style="font-weight:bold;vertical-align:top;">wsgi_file_wrapper</td><td style="vertical-align:top;">:</td><td><div>&lt;class wsgiref.util.FileWrapper at 0x030EDED8&gt;</div></td></tr><tr><td style="font-weight:bold;vertical-align:top;">wsgi_input</td><td style="vertical-align:top;">:</td><td><div>&lt;socket._fileobject object at 0x135307B0&gt;</div></td></tr><tr><td style="font-weight:bold;vertical-align:top;">wsgi_multiprocess</td><td style="vertical-align:top;">:</td><td><div>False</div></td></tr><tr><td style="font-weight:bold;vertical-align:top;">wsgi_multithread</td><td style="vertical-align:top;">:</td><td><div>True</div></td></tr><tr><td style="font-weight:bold;vertical-align:top;">wsgi_run_once</td><td style="vertical-align:top;">:</td><td><div>False</div></td></tr><tr><td style="font-weight:bold;vertical-align:top;">wsgi_url_scheme</td><td style="vertical-align:top;">:</td><td><div>http</div></td></tr><tr><td style="font-weight:bold;vertical-align:top;">wsgi_version</td><td style="vertical-align:top;">:</td><td><div><table><tr><td><div>1</div></td></tr><tr><td><div>0</div></td></tr></table></div></td></tr></table></div></td></tr><tr><td style="font-weight:bold;vertical-align:top;">extension</td><td style="vertical-align:top;">:</td><td><div>html</div></td></tr><tr><td style="font-weight:bold;vertical-align:top;">folder</td><td style="vertical-align:top;">:</td><td><div>E:\\Google Drive\\Projects\\web2py\\applications\\admin\\</div></td></tr><tr><td style="font-weight:bold;vertical-align:top;">function</td><td style="vertical-align:top;">:</td><td><div>design</div></td></tr><tr><td style="font-weight:bold;vertical-align:top;">global_settings</td><td style="vertical-align:top;">:</td><td><div><table><tr><td style="font-weight:bold;vertical-align:top;">app_folders</td><td style="vertical-align:top;">:</td><td><div>set([&#x27;E:\\\\Google Drive\\\\Projects\\\\web2py\\\\applications\\\\UGC\\\\&#x27;, &#x27;E:\\\\Google Drive\\\\Projects\\\\web2py\\\\applications\\\\admin\\\\&#x27;, &#x27;E:\\\\Google Drive\\\\Projects\\\\web2py\\\\applications\\\\welcome\\\\&#x27;])</div></td></tr><tr><td style="font-weight:bold;vertical-align:top;">applications_parent</td><td style="vertical-align:top;">:</td><td><div>E:\\Google Drive\\Projects\\web2py</div></td></tr><tr><td style="font-weight:bold;vertical-align:top;">cmd_args</td><td style="vertical-align:top;">:</td><td><div><table></table></div></td></tr><tr><td style="font-weight:bold;vertical-align:top;">cmd_options</td><td style="vertical-align:top;">:</td><td><div>&lt;Values at 0x3139940: {&#x27;verbose&#x27;: False, &#x27;ip&#x27;: &#x27;127.0.0.1&#x27;, &#x27;debuglevel&#x27;: 30, &#x27;with_scheduler&#x27;: False, &#x27;shutdown_timeout&#x27;: 5, &#x27;taskbar&#x27;: False, &#x27;with_coverage&#x27;: False, &#x27;pid_filename&#x27;: &#x27;httpserver.pid&#x27;, &#x27;maxthreads&#x27;: None, &#x27;softcron&#x27;: False, &#x27;server_name&#x27;: &#x27;htc-PC&#x27;, &#x27;bpython&#x27;: False, &#x27;nogui&#x27;: False, &#x27;port&#x27;: 8000, &#x27;print_errors&#x27;: False, &#x27;extcron&#x27;: False, &#x27;runcron&#x27;: False, &#x27;run_system_tests&#x27;: False, &#x27;test&#x27;: None, &#x27;folder&#x27;: &#x27;E:\\\\Google Drive\\\\Projects\\\\web2py&#x27;, &#x27;config&#x27;: &#x27;&#x27;, &#x27;minthreads&#x27;: None, &#x27;shell&#x27;: None, &#x27;run&#x27;: &#x27;&#x27;, &#x27;log_filename&#x27;: &#x27;httpserver.log&#x27;, &#x27;profiler_dir&#x27;: None, &#x27;args&#x27;: [&#x27;&#x27;], &#x27;socket_timeout&#x27;: 5, &#x27;ssl_ca_certificate&#x27;: None, &#x27;scheduler&#x27;: None, &#x27;interfaces&#x27;: None, &#x27;ssl_private_key&#x27;: &#x27;&#x27;, &#x27;gae&#x27;: None, &#x27;password&#x27;: &#x27;******&#x27;, &#x27;request_queue_size&#x27;: 5, &#x27;ssl_certificate&#x27;: &#x27;&#x27;, &#x27;cronjob&#x27;: False, &#x27;numthreads&#x27;: None, &#x27;quiet&#x27;: False, &#x27;import_models&#x27;: False, &#x27;timeout&#x27;: 10, &#x27;plain&#x27;: False, &#x27;nobanner&#x27;: False}&gt;</div></td></tr><tr><td style="font-weight:bold;vertical-align:top;">db_sessions</td><td style="vertical-align:top;">:</td><td><div>set([])</div></td></tr><tr><td style="font-weight:bold;vertical-align:top;">debugging</td><td style="vertical-align:top;">:</td><td><div>False</div></td></tr><tr><td style="font-weight:bold;vertical-align:top;">gluon_parent</td><td style="vertical-align:top;">:</td><td><div>E:\\Google Drive\\Projects\\web2py</div></td></tr><tr><td style="font-weight:bold;vertical-align:top;">is_jython</td><td style="vertical-align:top;">:</td><td><div>False</div></td></tr><tr><td style="font-weight:bold;vertical-align:top;">is_pypy</td><td style="vertical-align:top;">:</td><td><div>False</div></td></tr><tr><td style="font-weight:bold;vertical-align:top;">is_source</td><td style="vertical-align:top;">:</td><td><div>True</div></td></tr><tr><td style="font-weight:bold;vertical-align:top;">local_hosts</td><td style="vertical-align:top;">:</td><td><div><table><tr><td><div>::ffff:127.0.0.1</div></td></tr><tr><td><div>fe80::18e0:99e5:7103:6aa8%12</div></td></tr><tr><td><div>htc-PC</div></td></tr><tr><td><div>192.168.1.3</div></td></tr><tr><td><div>::1</div></td></tr><tr><td><div>127.0.0.1</div></td></tr></table></div></td></tr><tr><td style="font-weight:bold;vertical-align:top;">web2py_version</td><td style="vertical-align:top;">:</td><td><div>2.14.6-stable+timestamp.2016.05.10.00.21.47</div></td></tr></table></div></td></tr><tr><td style="font-weight:bold;vertical-align:top;">is_https</td><td style="vertical-align:top;">:</td><td><div>False</div></td></tr><tr><td style="font-weight:bold;vertical-align:top;">is_local</td><td style="vertical-align:top;">:</td><td><div>True</div></td></tr><tr><td style="font-weight:bold;vertical-align:top;">is_restful</td><td style="vertical-align:top;">:</td><td><div>False</div></td></tr><tr><td style="font-weight:bold;vertical-align:top;">is_scheduler</td><td style="vertical-align:top;">:</td><td><div>False</div></td></tr><tr><td style="font-weight:bold;vertical-align:top;">is_shell</td><td style="vertical-align:top;">:</td><td><div>False</div></td></tr><tr><td style="font-weight:bold;vertical-align:top;">now</td><td style="vertical-align:top;">:</td><td><div>datetime.datetime(2018, 1, 5, 11, 18, 34, 700000)</div></td></tr><tr><td style="font-weight:bold;vertical-align:top;">raw_args</td><td style="vertical-align:top;">:</td><td><div>UGC</div></td></tr><tr><td style="font-weight:bold;vertical-align:top;">raw_extension</td><td style="vertical-align:top;">:</td><td><div>None</div></td></tr><tr><td style="font-weight:bold;vertical-align:top;">url</td><td style="vertical-align:top;">:</td><td><div>/admin/default/design/UGC</div></td></tr><tr><td style="font-weight:bold;vertical-align:top;">utcnow</td><td style="vertical-align:top;">:</td><td><div>datetime.datetime(2018, 1, 5, 5, 48, 34, 700000)</div></td></tr><tr><td style="font-weight:bold;vertical-align:top;">wsgi</td><td style="vertical-align:top;">:</td><td><div>&lt;gluon.main.LazyWSGI object at 0x138149D0&gt;</div></td></tr></table></div>'
tRp58
sS'frames'
p59
(lp60
(dp61
S'file'
p62
S'E:\\Google Drive\\Projects\\web2py\\gluon\\restricted.py'
p63
sS'dump'
p64
(dp65
S'etype'
p66
S"<type 'exceptions.NameError'>"
p67
sS'global sys'
p68
S"<module 'sys' (built-in)>"
p69
sS'evalue'
p70
S'NameError("name \'iteritems\' is not defined",)'
p71
sS'tb'
p72
S'<traceback object>'
p73
sS'sys.exc_info'
p74
S'<built-in function exc_info>'
p75
ssS'lnum'
p76
I227
sS'lines'
p77
(dp78
I224
S'        raise'
p79
sI225
S'    except Exception as error:'
p80
sI226
S'        # extract the exception type and value (used as output message)'
p81
sI227
S'        etype, evalue, tb = sys.exc_info()'
p82
sI228
S'        # XXX Show exception in Wing IDE if running in debugger'
p83
sI229
S"        if __debug__ and 'WINGDB_ACTIVE' in os.environ:"
p84
sI230
S'            sys.excepthook(etype, evalue, tb)'
p85
sI231
S'        del tb'
p86
sI222
S'    except RestrictedError:'
p87
sI223
S'        # do not encapsulate (obfuscate) the original RestrictedError'
p88
ssS'call'
p89
S'(code=\'response.write(\\\'<!DOCTYPE html>\\\\n<html xmlns="ht...e.write(\\\'\\\\n    </body>\\\\n</html>\\\\n\\\', escape=False)\', environment={\'A\': <class \'gluon.html.A\'>, \'ANY_OF\': <class \'gluon.validators.ANY_OF\'>, \'ASSIGNJS\': <function ASSIGNJS>, \'A_button\': <function A_button>, \'B\': <class \'gluon.html.B\'>, \'BEAUTIFY\': <class \'gluon.html.BEAUTIFY\'>, \'BODY\': <class \'gluon.html.BODY\'>, \'BR\': <class \'gluon.html.BR\'>, \'BUTTON\': <class \'gluon.html.BUTTON\'>, \'CAT\': <class \'gluon.html.CAT\'>, ...}, layer=r\'E:\\Google Drive\\Projects\\web2py\\applications\\admin\\views\\default/design.html\')'
p90
sS'func'
p91
S'restricted'
p92
sa(dp93
g62
S'E:\\Google Drive\\Projects\\web2py\\applications\\admin\\views\\default\\design.html'
p94
sg64
(dp95
sg76
I578
sg77
(dp96
I576
S"    response.write(T('Admin language'))"
p97
sI577
S'    response.write(\'</span>\\n                <select name="adminlanguage" onchange="var date = new Date();cookieDate=date.setTime(date.getTime()+(100*24*60*60*1000));document.cookie=\\\'adminLanguage=\\\'+this.options[this.selectedIndex].id+\\\'; expires=\\\'+cookieDate+\\\'; path=/\\\';window.location.reload()">\\n                    \', escape=False)'
p98
sI578
S"    for langinfo in sorted([(code,info[1]) for code,info in iteritems(T.get_possible_languages_info()) if code != 'default']):"
p99
sI579
S"        response.write('\\n                    <option ', escape=False)"
p100
sI580
S"        response.write(T.accepted_language==langinfo[0] and 'selected' or '')"
p101
sI581
S"        response.write(' ', escape=False)"
p102
sI582
S"        response.write('id='+langinfo[0])"
p103
sI583
S"        response.write(' >', escape=False)"
p104
sI584
S'        response.write(langinfo[1])'
p105
sI585
S"        response.write('</option>\\n                    ', escape=False)"
p106
sI586
S'        pass'
p107
sI587
S"    response.write('\\n                </select>\\n                ', escape=False)"
p108
sI588
S'else:'
p109
sI569
S"response.write('&trade; ', escape=False)"
p110
sI570
S"response.write(T('created by'))"
p111
sI571
S"response.write(' Massimo Di Pierro &copy;2007-', escape=False)"
p112
sI572
S'response.write(request.now.year)'
p113
sI573
S"response.write('\\n                ', escape=False)"
p114
sI574
S"if hasattr(T,'get_possible_languages_info'):"
p115
sI575
S"    response.write('\\n                - ', escape=False)"
p116
ssg89
S'()'
p117
sg91
S'<module>'
p118
sasS'pyver'
p119
S'Python 2.7.13: C:\\Python27\\python.exe (prefix: C:\\Python27)'
p120
sS'session'
p121
g57
(S's\x8f\x04\x00\x00<div><table><tr><td style="font-weight:bold;vertical-align:top;">authorized</td><td style="vertical-align:top;">:</td><td><div>True</div></td></tr><tr><td style="font-weight:bold;vertical-align:top;">check_version</td><td style="vertical-align:top;">:</td><td><div>False</div></td></tr><tr><td style="font-weight:bold;vertical-align:top;">flash</td><td style="vertical-align:top;">:</td><td><div>None</div></td></tr><tr><td style="font-weight:bold;vertical-align:top;">hmac_key</td><td style="vertical-align:top;">:</td><td><div>2a34d46c-e0d5-4a05-85bb-32983f991323</div></td></tr><tr><td style="font-weight:bold;vertical-align:top;">is_mobile</td><td style="vertical-align:top;">:</td><td><div>auto</div></td></tr><tr><td style="font-weight:bold;vertical-align:top;">last_time</td><td style="vertical-align:top;">:</td><td><div>1515131314.72</div></td></tr><tr><td style="font-weight:bold;vertical-align:top;">pam_user</td><td style="vertical-align:top;">:</td><td><div>None</div></td></tr><tr><td style="font-weight:bold;vertical-align:top;">token</td><td style="vertical-align:top;">:</td><td><div>d9e4a779-e987-47d2-b28d-c2ec1c273371</div></td></tr></table></div>'
tRp122
sS'etype'
p123
S"<type 'exceptions.NameError'>"
p124
sS'date'
p125
S'Fri Jan 05 11:18:35 2018'
p126
sS'response'
p127
g57
(S's\x8d"\x00\x00<div><table><tr><td style="font-weight:bold;vertical-align:top;">body</td><td style="vertical-align:top;">:</td><td><div>&lt;cStringIO.StringO object at 0x14731360&gt;</div></td></tr><tr><td style="font-weight:bold;vertical-align:top;">cookies</td><td style="vertical-align:top;">:</td><td><div><table><tr><td style="font-weight:bold;vertical-align:top;">session_id_admin</td><td style="vertical-align:top;">:</td><td><div>127.0.0.1-5ef0fba7-c2e0-4e5c-8901-f4418065d0fa<table><tr><td style="font-weight:bold;vertical-align:top;">comment</td><td style="vertical-align:top;">:</td><td><div></div></td></tr><tr><td style="font-weight:bold;vertical-align:top;">domain</td><td style="vertical-align:top;">:</td><td><div></div></td></tr><tr><td style="font-weight:bold;vertical-align:top;">expires</td><td style="vertical-align:top;">:</td><td><div></div></td></tr><tr><td style="font-weight:bold;vertical-align:top;">httponly</td><td style="vertical-align:top;">:</td><td><div></div></td></tr><tr><td style="font-weight:bold;vertical-align:top;">max-age</td><td style="vertical-align:top;">:</td><td><div></div></td></tr><tr><td style="font-weight:bold;vertical-align:top;">path</td><td style="vertical-align:top;">:</td><td><div>/</div></td></tr><tr><td style="font-weight:bold;vertical-align:top;">secure</td><td style="vertical-align:top;">:</td><td><div></div></td></tr><tr><td style="font-weight:bold;vertical-align:top;">version</td><td style="vertical-align:top;">:</td><td><div></div></td></tr></table></div></td></tr></table></div></td></tr><tr><td style="font-weight:bold;vertical-align:top;">delimiters</td><td style="vertical-align:top;">:</td><td><div><table><tr><td><div>{{</div></td></tr><tr><td><div>}}</div></td></tr></table></div></td></tr><tr><td style="font-weight:bold;vertical-align:top;">files</td><td style="vertical-align:top;">:</td><td><div><table><tr><td><div>/admin/static/_2.14.6/js/jquery.js</div></td></tr><tr><td><div>/admin/static/_2.14.6/css/calendar.css</div></td></tr><tr><td><div>/admin/static/_2.14.6/js/calendar.js</div></td></tr><tr><td><div>/admin/static/_2.14.6/js/web2py.js</div></td></tr><tr><td><div>/admin/static/_2.14.6/plugin_multiselect/jquery.multi-select.js</div></td></tr><tr><td><div>/admin/static/_2.14.6/plugin_multiselect/multi-select.css</div></td></tr><tr><td><div>/admin/static/_2.14.6/plugin_multiselect/start.js</div></td></tr><tr><td><div>/admin/static/_2.14.6/plugin_statebutton/js/bootstrap-switch.js</div></td></tr><tr><td><div>/admin/static/_2.14.6/plugin_statebutton/css/bootstrap-switch.css</div></td></tr><tr><td><div>/admin/static/_2.14.6/css/bootstrap.min.css</div></td></tr><tr><td><div>/admin/static/_2.14.6/css/bootstrap_essentials.css</div></td></tr><tr><td><div>/admin/static/_2.14.6/css/bootstrap-responsive.min.css</div></td></tr></table></div></td></tr><tr><td style="font-weight:bold;vertical-align:top;">flash</td><td style="vertical-align:top;">:</td><td><div>web2py upgraded; please restart it</div></td></tr><tr><td style="font-weight:bold;vertical-align:top;">form_label_separator</td><td style="vertical-align:top;">:</td><td><div>: </div></td></tr><tr><td style="font-weight:bold;vertical-align:top;">formstyle</td><td style="vertical-align:top;">:</td><td><div>table3cols</div></td></tr><tr><td style="font-weight:bold;vertical-align:top;">generic_patterns</td><td style="vertical-align:top;">:</td><td><div><table><tr><td><div>*</div></td></tr></table></div></td></tr><tr><td style="font-weight:bold;vertical-align:top;">headers</td><td style="vertical-align:top;">:</td><td><div><table><tr><td style="font-weight:bold;vertical-align:top;">X-Powered-By</td><td style="vertical-align:top;">:</td><td><div>web2py</div></td></tr></table></div></td></tr><tr><td style="font-weight:bold;vertical-align:top;">menu</td><td style="vertical-align:top;">:</td><td><div><table><tr><td><div><table><tr><td><div>Site</div></td></tr><tr><td><div>False</div></td></tr><tr><td><div>/admin/default/site</div></td></tr></table></div></td></tr><tr><td><div><table><tr><td><div>Edit</div></td></tr><tr><td><div>True</div></td></tr><tr><td><div>/admin/default/design/UGC</div></td></tr></table></div></td></tr><tr><td><div><table><tr><td><div>About</div></td></tr><tr><td><div>False</div></td></tr><tr><td><div>/admin/default/about/UGC</div></td></tr></table></div></td></tr><tr><td><div><table><tr><td><div>Errors</div></td></tr><tr><td><div>False</div></td></tr><tr><td><div>/admin/default/errors/UGC</div></td></tr></table></div></td></tr><tr><td><div><table><tr><td><div>Versioning</div></td></tr><tr><td><div>False</div></td></tr><tr><td><div>/admin/mercurial/commit/UGC</div></td></tr></table></div></td></tr><tr><td><div><table><tr><td><div>Help</div></td></tr><tr><td><div>False</div></td></tr><tr><td><div>/examples/default/documentation</div></td></tr></table></div></td></tr><tr><td><div><table><tr><td><div>Logout</div></td></tr><tr><td><div>False</div></td></tr><tr><td><div>/admin/default/logout</div></td></tr></table></div></td></tr><tr><td><div><table><tr><td><div>Debug</div></td></tr><tr><td><div>False</div></td></tr><tr><td><div>/admin/debug/interact</div></td></tr></table></div></td></tr></table></div></td></tr><tr><td style="font-weight:bold;vertical-align:top;">meta</td><td style="vertical-align:top;">:</td><td><div><table></table></div></td></tr><tr><td style="font-weight:bold;vertical-align:top;">models_to_run</td><td style="vertical-align:top;">:</td><td><div><table><tr><td><div>^\\w+\\.py$</div></td></tr><tr><td><div>^default/\\w+\\.py$</div></td></tr><tr><td><div>^default/design/\\w+\\.py$</div></td></tr></table></div></td></tr><tr><td style="font-weight:bold;vertical-align:top;">postprocessing</td><td style="vertical-align:top;">:</td><td><div><table></table></div></td></tr><tr><td style="font-weight:bold;vertical-align:top;">session_client</td><td style="vertical-align:top;">:</td><td><div>127.0.0.1</div></td></tr><tr><td style="font-weight:bold;vertical-align:top;">session_cookie_compression_level</td><td style="vertical-align:top;">:</td><td><div>None</div></td></tr><tr><td style="font-weight:bold;vertical-align:top;">session_cookie_expires</td><td style="vertical-align:top;">:</td><td><div>None</div></td></tr><tr><td style="font-weight:bold;vertical-align:top;">session_data_name</td><td style="vertical-align:top;">:</td><td><div>session_data_admin</div></td></tr><tr><td style="font-weight:bold;vertical-align:top;">session_file</td><td style="vertical-align:top;">:</td><td><div>&lt;open file &#x27;E:\\\\Google Drive\\\\Projects\\\\web2py\\\\applications\\\\admin\\\\sessions\\\\0f6\\\\0ed\\\\127.0.0.1-5ef0fba7-c2e0-4e5c-8901-f4418065d0fa&#x27;, mode &#x27;rb+&#x27; at 0x13868F98&gt;</div></td></tr><tr><td style="font-weight:bold;vertical-align:top;">session_filename</td><td style="vertical-align:top;">:</td><td><div>E:\\Google Drive\\Projects\\web2py\\applications\\admin\\sessions\\127.0.0.1-5ef0fba7-c2e0-4e5c-8901-f4418065d0fa</div></td></tr><tr><td style="font-weight:bold;vertical-align:top;">session_hash</td><td style="vertical-align:top;">:</td><td><div>775710d4210439d254d27b635b58512a</div></td></tr><tr><td style="font-weight:bold;vertical-align:top;">session_id</td><td style="vertical-align:top;">:</td><td><div>127.0.0.1-5ef0fba7-c2e0-4e5c-8901-f4418065d0fa</div></td></tr><tr><td style="font-weight:bold;vertical-align:top;">session_id_name</td><td style="vertical-align:top;">:</td><td><div>session_id_admin</div></td></tr><tr><td style="font-weight:bold;vertical-align:top;">session_locked</td><td style="vertical-align:top;">:</td><td><div>True</div></td></tr><tr><td style="font-weight:bold;vertical-align:top;">session_masterapp</td><td style="vertical-align:top;">:</td><td><div>admin</div></td></tr><tr><td style="font-weight:bold;vertical-align:top;">session_new</td><td style="vertical-align:top;">:</td><td><div>False</div></td></tr><tr><td style="font-weight:bold;vertical-align:top;">session_storage_type</td><td style="vertical-align:top;">:</td><td><div>file</div></td></tr><tr><td style="font-weight:bold;vertical-align:top;">static_version</td><td style="vertical-align:top;">:</td><td><div>2.14.6</div></td></tr><tr><td style="font-weight:bold;vertical-align:top;">static_version_urls</td><td style="vertical-align:top;">:</td><td><div>True</div></td></tr><tr><td style="font-weight:bold;vertical-align:top;">status</td><td style="vertical-align:top;">:</td><td><div>200</div></td></tr><tr><td style="font-weight:bold;vertical-align:top;">subtitle</td><td style="vertical-align:top;">:</td><td><div>admin</div></td></tr><tr><td style="font-weight:bold;vertical-align:top;">title</td><td style="vertical-align:top;">:</td><td><div>design UGC</div></td></tr><tr><td style="font-weight:bold;vertical-align:top;">view</td><td style="vertical-align:top;">:</td><td><div>default/design.html</div></td></tr></table></div>'
tRp128
sS'locals'
p129
(dp130
S'all'
p131
S'<function all>'
p132
sS'upload_plugin_form'
p133
S'<function upload_plugin_form>'
p134
sS'OBJECT'
p135
S"<class 'gluon.html.OBJECT'>"
p136
sS'helpicon'
p137
S'<function helpicon>'
p138
sS'SQLDB'
p139
S"<class 'pydal.base.DAL'>"
p140
sS'read_hosts_deny'
p141
S'<function read_hosts_deny>'
p142
sg121
S"<Storage {'_user_agent': <Storage {'os': <Storag...9ccc-1bc6ed45bf8b'], 'last_time': 1515131314.72}>"
p143
sS'LINK'
p144
S"<class 'gluon.html.LINK'>"
p145
sS'BR'
p146
S"<class 'gluon.html.BR'>"
p147
sS'local_import'
p148
S'<function <lambda>>'
p149
sS'OPTGROUP'
p150
S"<class 'gluon.html.OPTGROUP'>"
p151
sS'__package__'
p152
S'None'
p153
sS'compile2'
p154
S'<function compile2>'
p155
sS'redirect'
p156
S'<function redirect>'
p157
sS'IS_INT_IN_RANGE'
p158
S"<class 'gluon.validators.IS_INT_IN_RANGE'>"
p159
sS'IS_LOWER'
p160
S"<class 'gluon.validators.IS_LOWER'>"
p161
sS'IS_STRONG'
p162
S"<class 'gluon.validators.IS_STRONG'>"
p163
sS'write_hosts_deny'
p164
S'<function write_hosts_deny>'
p165
sS'base64'
p166
S"<module 'base64' from 'C:\\Python27\\lib\\base64.pyc'>"
p167
sS'_link'
p168
S"'/admin/debug/interact'"
p169
sS'IS_IN_DB'
p170
S"<class 'gluon.validators.IS_IN_DB'>"
p171
sS'languages'
p172
S"{'ar': ('ar', 'Arabic', 1491822590.0, 'plural-ar.py', 0, 'ar', 1, <function <lambda>>, <function <lambda>>), 'ca': ('ca', 'Catal\\xc3\\xa0', 1491822590.0, None, 0, 'default', 1, <function <lambda>>, <function <lambda>>), 'cs': ('cs-cz', '\\xc4\\x8de\\xc5\\xa1tina', 1491822590.0, 'plural-cs.py', 1491822590.0, 'cs', 3, <function <lambda>>, <function <lambda>>), 'de': ('de', 'Deutsch (DE)', 1491822590.0, 'plural-de.py', 0, 'de', 2, <function <lambda>>, <function <lambda>>), 'default': ('en-us', 'English (US)', 1491822590.0, 'plural-en.py', 1491822590.0, 'en', 2, <function <lambda>>, <function <lambda>>), 'es': ('es', 'Espa\\xc3\\xb1ol', 1491822590.0, 'plural-es.py', 1491822590.0, 'es', 2, <function <lambda>>, <function <lambda>>), 'fr': ('fr', 'Fran\\xc3\\xa7ais', 1491822590.0, 'plural-fr.py', 0, 'fr', 2, <function <lambda>>, <function construct_plural_form>), 'fr-ca': ('fr-ca', 'Fran\\xc3\\xa7ais (Canadien)', 1491822590.0, 'plural-fr-ca.py', 0, 'fr', 2, <function <lambda>>, <function construct_plural_form>), 'hi': ('hi-in', '\\xe0\\xa4\\xb9\\xe0\\xa4\\xbf\\xe0\\xa4\\xa8\\xe0\\xa5\\x8d\\xe0\\xa4\\xa6\\xe0\\xa5\\x80', 1491822590.0, 'plural-hi.py', 0, 'hi', 2, <function <lambda>>, <function <lambda>>), 'hu': ('hu', 'Magyar', 1491822590.0, 'plural-hu.py', 0, 'hu', 2, <function <lambda>>, <function <lambda>>), ...}"
p173
sS'TAG'
p174
S'<gluon.html.__TAG__ object>'
p175
sS'WEB2PY_VERSION_URL'
p176
S"'http://web2py.com/examples/default/version'"
p177
sS'__name__'
p178
S"'__restricted__'"
p179
sS'SQLField'
p180
S"<class 'pydal.objects.Field'>"
p181
sS'_f'
p182
S"'design'"
p183
sS'include'
p184
S"{'__init__.py': [], 'abc.html': [], 'appadmin.html': [], 'appadmin/index.html': [], 'browse/manage_problems.html': [], 'check/index.html': [], 'default/About_us.html': [], 'default/About_us.html.1': [], 'default/Browse_problem.html': [], 'default/Browse_problem.html.1': [], ...}"
p185
sS'_c'
p186
S"'default'"
p187
sS'_a'
p188
S"'admin'"
p189
sS'BODY'
p190
S"<class 'gluon.html.BODY'>"
p191
sS'IS_DATE_IN_RANGE'
p192
S"<class 'gluon.validators.IS_DATE_IN_RANGE'>"
p193
sS'statics'
p194
S"['403.html', '404.html', '500.html', 'css/bootstrap-theme.min.css', 'css/bootstrap.min.css', 'css/calendar.css', 'css/web2py-bootstrap3.css', 'css/web2py-bootstrap3.css.bak', 'css/web2py.css', 'css/web2py.css.bak', 'fonts/glyphicons-halflings-regular.eot', 'fonts/glyphicons-halflings-regular.svg', 'fonts/glyphicons-halflings-regular.ttf', 'fonts/glyphicons-halflings-regular.woff', 'fonts/glyphicons-halflings-regular.woff2', 'images/b1.jpg', 'images/b2.jpg', 'images/b3.jpg', 'images/b5.jpg', 'images/background.jpg', ...]"
p195
sS'button_enable'
p196
S'<function button_enable>'
p197
sS'IFRAME'
p198
S"<class 'gluon.html.IFRAME'>"
p199
sS'ON'
p200
S'True'
p201
sS'URL'
p202
S'<function URL>'
p203
sS'__file__'
p204
S"r'E:\\Google Drive\\Projects\\web2py\\applications\\admin\\views\\default/design.html'"
p205
sS'TFOOT'
p206
S"<class 'gluon.html.TFOOT'>"
p207
sS'P'
S"<class 'gluon.html.P'>"
p208
sS'T'
S'<gluon.languages.translator object>'
p209
sS'XHTML'
p210
S"<class 'gluon.html.XHTML'>"
p211
sS'deny_file'
p212
S"r'E:\\Google Drive\\Projects\\web2py\\applications\\admin\\private\\hosts.deny'"
p213
sS'regex_include'
p214
S'<_sre.SRE_Pattern object>'
p215
sS'TicketStorage'
p216
S"<class 'gluon.restricted.TicketStorage'>"
p217
sS'OL'
p218
S"<class 'gluon.html.OL'>"
p219
sS'TEXTAREA'
p220
S"<class 'gluon.html.TEXTAREA'>"
p221
sS'MENU'
p222
S"<class 'gluon.html.MENU'>"
p223
sS'button'
p224
S'<function button>'
p225
sS'EMAIL_LOGIN'
p226
S'None'
p227
sS't0'
p228
S'1515131314.72'
p229
sS'tar_compiled'
p230
S'<function tar_compiled>'
p231
sS'controllers'
p232
S"['appadmin.py', 'browse.py', 'collaboration.py', 'default.py', 'json_parsing.py', 'saveTweets.py', 'test.py']"
p233
sS'p'
S"('plural-zh-tw.py', 0, 'zh', 1)"
p234
sS'WEB2PY_URL'
p235
S"'http://web2py.com'"
p236
sS'STYLE'
p237
S"<class 'gluon.html.STYLE'>"
p238
sS'cgi'
p239
S"<module 'cgi' from 'C:\\Python27\\lib\\cgi.pyc'>"
p240
sS'CODE'
p241
S"<class 'gluon.html.CODE'>"
p242
sS'HTTP'
p243
S"<class 'gluon.http.HTTP'>"
p244
sS'is_gae'
p245
S'False'
p246
sS'HR'
p247
S"<class 'gluon.html.HR'>"
p248
sS'IS_DATETIME'
p249
S"<class 'gluon.validators.IS_DATETIME'>"
p250
sS'login_record'
p251
S'<function login_record>'
p252
sS'expiration_failed_logins'
p253
S'3600'
p254
sS'LABEL'
p255
S"<class 'gluon.html.LABEL'>"
p256
sS'CLEANUP'
p257
S"<class 'gluon.validators.CLEANUP'>"
p258
sS'read_file'
p259
S'<function read_file>'
p260
sS'plugins'
p261
S'[]'
p262
sS'port'
p263
S'8000'
p264
sS'SELECT'
p265
S"<class 'gluon.html.SELECT'>"
p266
sS'DEMO_MODE'
p267
g246
sS'sp_button'
p268
S'<function sp_button>'
p269
sS'LAYOUTS_APP'
p270
S"'http://web2py.com/layouts'"
p271
sS'regex_tables'
p272
S'<_sre.SRE_Pattern object>'
p273
sS'CENTER'
p274
S"<class 'gluon.html.CENTER'>"
p275
sS'allowed_number_of_attempts'
p276
S'5'
sS'editlanguagefile'
p277
S'<function editlanguagefile>'
p278
sg92
S'<function restricted>'
p279
sS'urllib'
p280
S"<module 'urllib' from 'C:\\Python27\\lib\\urllib.pyc'>"
p281
sS'filename'
p282
S"''"
p283
sS'global_settings'
p284
S"<Storage {'debugging': False, 'is_pypy': False, ...+timestamp.2016.05.10.00.21.47', 'cmd_args': []}>"
p285
sS'regex_longcomments'
p286
S'<_sre.SRE_Pattern object>'
p287
sS'HTML'
p288
S"<class 'gluon.html.HTML'>"
p289
sS'SQLFORM'
p290
S"<class 'gluon.sqlhtml.SQLFORM'>"
p291
sS'EMAIL_SERVER'
p292
S"'localhost'"
p293
sS'difflib'
p294
S"<module 'difflib' from 'C:\\Python27\\lib\\difflib.pyc'>"
p295
sS'file_path'
p296
S'[]'
p297
sS'searchbox'
p298
S'<function searchbox>'
p299
sS'LOAD'
p300
S'<function LOAD>'
p301
sS'PRE'
p302
S"<class 'gluon.html.PRE'>"
p303
sS'FIELDSET'
p304
S"<class 'gluon.html.FIELDSET'>"
p305
sS'extend'
p306
S"{'abc.html': 'layout.html', 'appadmin.html': 'layout.html', 'appadmin/index.html': 'layout.html', 'browse/manage_problems.html': 'layout.html', 'check/index.html': 'layout.html', 'default/About_us.html': 'layout.html', 'default/About_us.html.1': 'layout.html', 'default/Browse_problem.html': 'layout.html', 'default/Browse_problem.html.1': 'layout.html', 'default/Contact_us.html': 'layout.html', ...}"
p307
sS'remove_compiled_application'
p308
S'<function remove_compiled_application>'
p309
sS'IS_EQUAL_TO'
p310
S"<class 'gluon.validators.IS_EQUAL_TO'>"
p311
sS'FILTER_APPS'
p312
S'[]'
p313
sS'md5_hash'
p314
S'<function md5_hash>'
p315
sS'apath'
p316
S'<function apath>'
p317
sS'HEAD'
p318
S"<class 'gluon.html.HEAD'>"
p319
sS'embed64'
p320
S'<function embed64>'
p321
sS'IS_LIST_OF'
p322
S"<class 'gluon.validators.IS_LIST_OF'>"
p323
sS'x'
S"'queue_task'"
p324
sS'path'
p325
S'[]'
p326
sS'EMBED'
p327
S"<class 'gluon.html.EMBED'>"
p328
sS'FORM'
p329
S"<class 'gluon.html.FORM'>"
p330
sS'c'
S"'web2py_ajax.html'"
p331
sS'peekfile'
p332
S'<function peekfile>'
p333
sS'verify_password'
p334
S'<function verify_password>'
p335
sS'H2'
p336
S"<class 'gluon.html.H2'>"
p337
sS'items'
p338
S"['']"
p339
sS'BUTTON'
p340
S"<class 'gluon.html.BUTTON'>"
p341
sS'H1'
p342
S"<class 'gluon.html.H1'>"
p343
sS'H6'
p344
S"<class 'gluon.html.H6'>"
p345
sS'portalocker'
p346
S"<module 'pydal.contrib.portalocker' from 'E:\\Goo...luon\\packages\\dal\\pydal\\contrib\\portalocker.pyc'>"
p347
sS'is_manager'
p348
S'<function is_manager>'
p349
sS'H5'
p350
S"<class 'gluon.html.H5'>"
p351
sS'UL'
p352
S"<class 'gluon.html.UL'>"
p353
sS'IS_UPPER'
p354
S"<class 'gluon.validators.IS_UPPER'>"
p355
sS'IS_LIST_OF_EMAILS'
p356
S"<class 'gluon.validators.IS_LIST_OF_EMAILS'>"
p357
sS'xmlescape'
p358
S'<function xmlescape>'
p359
sS'IS_TIME'
p360
S"<class 'gluon.validators.IS_TIME'>"
p361
sS'os'
p362
S"<module 'os' from 'C:\\Python27\\lib\\os.pyc'>"
p363
sS'testfile'
p364
S'<function testfile>'
p365
sS'compile_application'
p366
S'<function compile_application>'
p367
sS'RestrictedError'
p368
S"<class 'gluon.restricted.RestrictedError'>"
p369
sS'cache'
p370
S'<gluon.cache.Cache object>'
p371
sS'OPTION'
p372
S"<class 'gluon.html.OPTION'>"
p373
sS'TITLE'
p374
S"<class 'gluon.html.TITLE'>"
p375
sS'CRYPT'
p376
S"<class 'gluon.validators.CRYPT'>"
p377
sS'app'
p378
S"'UGC'"
p379
sg56
S"<Storage {'_vars': <Storage {}>, 'function': 'de...Drive\\\\Projects\\\\web2py\\\\applications\\\\admin\\\\'}>"
p380
sS'IS_EMPTY_OR'
p381
S"<class 'gluon.validators.IS_EMPTY_OR'>"
p382
sS'MARKMIN'
p383
S"<class 'gluon.html.MARKMIN'>"
p384
sS'web2py_uuid'
p385
S'<function web2py_uuid>'
p386
sS'sys'
p387
S"<module 'sys' (built-in)>"
p388
sS'INPUT'
p389
S"<class 'gluon.html.INPUT'>"
p390
sS'editpluralsfile'
p391
S'<function editpluralsfile>'
p392
sS'table'
p393
S"'Testing'"
p394
sS'STRONG'
p395
S"<class 'gluon.html.STRONG'>"
p396
sS'stateWidget'
p397
S'<function stateWidget>'
p398
sS'COL'
p399
S"<class 'gluon.html.COL'>"
p400
sS'privates'
p401
S"['Ravi/Basics.txt', 'appconfig.ini', 'data.txt', 'data.txt.bak', 'data_file.json', 'id.txt', 'id.txt.bak', 'mention.txt', 'mention.txt.bak']"
p402
sS'_t'
p403
S"'UGC'"
p404
sS'SCRIPT'
p405
S"<class 'gluon.html.SCRIPT'>"
p406
sS'file_upload_form'
p407
S'<function file_upload_form>'
p408
sS'have_mercurial'
p409
g246
sS'editfile'
p410
S'<function editfile>'
p411
sS'H3'
p412
S"<class 'gluon.html.H3'>"
p413
sS'is_mobile'
p414
g246
sS'EXPIRATION'
p415
S'3600'
p416
sS'findT'
p417
S'<function findT>'
p418
sS'TABLE'
p419
S"<class 'gluon.html.TABLE'>"
p420
sS'IS_IPV4'
p421
S"<class 'gluon.validators.IS_IPV4'>"
p422
sS'IS_LENGTH'
p423
S"<class 'gluon.validators.IS_LENGTH'>"
p424
sS'IS_IPV6'
p425
S"<class 'gluon.validators.IS_IPV6'>"
p426
sS'XML'
p427
S"<class 'gluon.html.XML'>"
p428
sS'ANY_OF'
p429
S"<class 'gluon.validators.ANY_OF'>"
p430
sS'B'
S"<class 'gluon.html.B'>"
p431
sS'IMG'
p432
S"<class 'gluon.html.IMG'>"
p433
sS'SQLTABLE'
p434
S"<class 'gluon.sqlhtml.SQLTABLE'>"
p435
sS'IS_MATCH'
p436
S"<class 'gluon.validators.IS_MATCH'>"
p437
sS'untar'
p438
S'<function untar>'
p439
sS'IS_ALPHANUMERIC'
p440
S"<class 'gluon.validators.IS_ALPHANUMERIC'>"
p441
sS'cleanpath'
p442
S'<function cleanpath>'
p443
sS'crontab'
p444
S"'E:/Google Drive/Projects/web2py/applications/UGC/cron/crontab'"
p445
sS'socket'
p446
S"<module 'socket' from 'C:\\Python27\\lib\\socket.pyc'>"
p447
sS'SPAN'
p448
S"<class 'gluon.html.SPAN'>"
p449
sS'IS_JSON'
p450
S"<class 'gluon.validators.IS_JSON'>"
p451
sS'f'
S"'web2py_ajax.html'"
p452
sS'IS_IPADDRESS'
p453
S"<class 'gluon.validators.IS_IPADDRESS'>"
p454
sS'fix_newlines'
p455
S'<function fix_newlines>'
p456
sS'dedent'
p457
S'<function dedent>'
p458
sS'IS_SLUG'
p459
S"<class 'gluon.validators.IS_SLUG'>"
p460
sS'CHECK_VERSION'
p461
g201
sS'BEAUTIFY'
p462
S"<class 'gluon.html.BEAUTIFY'>"
p463
sS'META'
p464
S"<class 'gluon.html.META'>"
p465
sS'controller_functions'
p466
S"['appadmin/bg_graph_model.html', 'appadmin/ccache.html', 'appadmin/csv.html', 'appadmin/download.html', 'appadmin/graph_model.html', 'appadmin/hooks.html', 'appadmin/index.html', 'appadmin/insert.html', 'appadmin/manage.html', 'appadmin/select.html', 'appadmin/state.html', 'appadmin/update.html', 'browse/index.html', 'browse/manage_problems.html', 'collaboration/postMessage.html', 'default/About_us.html', 'default/Browse_problem.html', 'default/Contact_us.html', 'default/abc.html', 'default/browse_prob_admin.html', ...]"
p467
sS'v'
S"'images'"
p468
sS'k'
S'0'
sS'deletefile'
p469
S'<function deletefile>'
p470
sS'update_all_languages'
p471
S'<function update_all_languages>'
p472
sS'EM'
p473
S"<class 'gluon.html.EM'>"
p474
sS'IS_DATE'
p475
S"<class 'gluon.validators.IS_DATE'>"
p476
sS'IS_EMAIL'
p477
S"<class 'gluon.validators.IS_EMAIL'>"
p478
sS'tar'
p479
S'<function tar>'
p480
sS'up'
p481
S'<function up>'
p482
sS'IS_NOT_EMPTY'
p483
S"<class 'gluon.validators.IS_NOT_EMPTY'>"
p484
sS'IS_FLOAT_IN_RANGE'
p485
S"<class 'gluon.validators.IS_FLOAT_IN_RANGE'>"
p486
sS'TBODY'
p487
S"<class 'gluon.html.TBODY'>"
p488
sS'CAT'
p489
S"<class 'gluon.html.CAT'>"
p490
sS'Field'
p491
S"<class 'pydal.objects.Field'>"
p492
sS'MULTI_USER_MODE'
p493
g246
sS'H4'
p494
S"<class 'gluon.html.H4'>"
p495
sg62
S"''"
p496
sS'LEGEND'
p497
S"<class 'gluon.html.LEGEND'>"
p498
sS'DIV'
p499
S"<class 'gluon.html.DIV'>"
p500
sS'shutil'
p501
S"<module 'shutil' from 'C:\\Python27\\lib\\shutil.pyc'>"
p502
sS'id'
p503
S"'modules__verifyMail__py'"
p504
sS'defines'
p505
S"{'db.py': [], 'menu.py': [], 'ugmain.py': ['Col', 'Colleges', 'Funded', 'Locate', 'Logins', 'Mappings', 'Problems', 'Rankings', 'Slck', 'Solutions', 'Testing']}"
p506
sS'_config'
p507
S"{'__builtins__': {'ArithmeticError': <type 'exceptions.ArithmeticError'>, 'AssertionError': <type 'exceptions.AssertionError'>, 'AttributeError': <type 'exceptions.AttributeError'>, 'BaseException': <type 'exceptions.BaseException'>, 'BufferError': <type 'exceptions.BufferError'>, 'BytesWarning': <type 'exceptions.BytesWarning'>, 'DeprecationWarning': <type 'exceptions.DeprecationWarning'>, 'EOFError': <type 'exceptions.EOFError'>, 'Ellipsis': Ellipsis, 'EnvironmentError': <type 'exceptions.EnvironmentError'>, ...}, '__file__': 'Unknown', '__name__': '__restricted__', 'password': 'pbkdf2(1000,20,sha512)$85e078537ed1899f$5bd820c8bd7a3b91737a96a8d7acf0b938bf434f'}"
p508
sS'functions'
p509
S"{'appadmin.py': ['bg_graph_model', 'ccache', 'csv', 'download', 'graph_model', 'hooks', 'index', 'insert', 'manage', 'select', 'state', 'update'], 'browse.py': ['index', 'manage_problems'], 'collaboration.py': ['postMessage'], 'default.py': ['About_us', 'Browse_problem', 'Contact_us', 'abc', 'browse_prob_admin', 'browse_sol_admin', 'call', 'collaboration', 'console', 'download', 'index', 'postMessage', 'relatedsolution', 'stackrank', 'superadmin', 'superadmin1', 'upload_prob', 'upload_sol', 'user', 'view_prob'], 'json_parsing.py': [], 'saveTweets.py': [], 'test.py': ['index', 'queue_task']}"
p510
sS'COLGROUP'
p511
S"<class 'gluon.html.COLGROUP'>"
p512
sS'A_button'
p513
S'<function A_button>'
p514
sS'TT'
p515
S"<class 'gluon.html.TT'>"
p516
sS'views'
p517
S"['__init__.py', 'abc.html', 'appadmin.html', 'appadmin/index.html', 'browse/manage_problems.html', 'check/index.html', 'default/About_us.html', 'default/About_us.html.1', 'default/Browse_problem.html', 'default/Browse_problem.html.1', 'default/Contact_us.html', 'default/abc.html', 'default/browse_prob_admin.csv', 'default/browse_prob_admin.html', 'default/browse_sol_admin.html', 'default/collaboration.html', 'default/console.html', 'default/index.html', 'default/index.html.1', 'default/list.js', ...]"
p518
sS'TR'
p519
S"<class 'gluon.html.TR'>"
p520
sS'LI'
p521
S"<class 'gluon.html.LI'>"
p522
sS'listdir'
p523
S'<function listdir>'
p524
sS'failed_login_count'
p525
S'<function failed_login_count>'
p526
sS'TH'
p527
S"<class 'gluon.html.TH'>"
p528
sS'TD'
p529
S"<class 'gluon.html.TD'>"
p530
sS'IS_URL'
p531
S"<class 'gluon.validators.IS_URL'>"
p532
sS'A'
S"<class 'gluon.html.A'>"
p533
sS'stat'
p534
S"<module 'stat' from 'C:\\Python27\\lib\\stat.pyc'>"
p535
sS'IS_DATETIME_IN_RANGE'
p536
S"<class 'gluon.validators.IS_DATETIME_IN_RANGE'>"
p537
sS'IS_IMAGE'
p538
S"<class 'gluon.validators.IS_IMAGE'>"
p539
sS'pfile'
p540
S"'plural-uk.py'"
p541
sS'models'
p542
S"['db.py', 'menu.py', 'ugmain.py']"
p543
sS'__builtins__'
p544
S"{'ArithmeticError': <type 'exceptions.ArithmeticError'>, 'AssertionError': <type 'exceptions.AssertionError'>, 'AttributeError': <type 'exceptions.AttributeError'>, 'BaseException': <type 'exceptions.BaseException'>, 'BufferError': <type 'exceptions.BufferError'>, 'BytesWarning': <type 'exceptions.BytesWarning'>, 'DeprecationWarning': <type 'exceptions.DeprecationWarning'>, 'EOFError': <type 'exceptions.EOFError'>, 'Ellipsis': Ellipsis, 'EnvironmentError': <type 'exceptions.EnvironmentError'>, ...}"
p545
sS'm'
S"'verifyMail.py'"
p546
sS'_name'
p547
S"<lazyT 'Debug'>"
p548
sS'regex_expose'
p549
S'<_sre.SRE_Pattern object>'
p550
sS'IS_NOT_IN_DB'
p551
S"<class 'gluon.validators.IS_NOT_IN_DB'>"
p552
sS'http_host'
p553
S"'127.0.0.1'"
p554
sg127
S"<Storage {'body': <cStringIO.StringO object at 0...> at 0x146781F0>, 'view': 'default/design.html'}>"
p555
sS'THEAD'
p556
S"<class 'gluon.html.THEAD'>"
p557
sS'lang'
p558
S"'zh-tw'"
p559
sS'IS_NULL_OR'
p560
S"<class 'gluon.validators.IS_EMPTY_OR'>"
p561
sS'I'
S"<class 'gluon.html.I'>"
p562
sS'PLUGINS_APP'
p563
S"'http://web2py.com/plugins'"
p564
sS'thispath'
p565
S"'private__Ravi'"
p566
sS'_active'
p567
g246
sS'GAE_APPCFG'
p568
S"r'E:\\usr\\local\\bin\\appcfg.py'"
p569
sS'modules'
p570
S"['__init__.py', 'catFun.py', 'claimFun.py', 'doTweet.py', 'json_parsing.py', 'mapCollege.py', 'ranking.py', 'saveTweets.py', 'sendMail.py', 'set_ids.py', 'states.py', 'validate_email.py', 'verifyMail.py']"
p571
sS'IS_EXPR'
p572
S"<class 'gluon.validators.IS_EXPR'>"
p573
sS'file_create_form'
p574
S'<function file_create_form>'
p575
sS'EMAIL_SENDER'
p576
S"'professor@example.com'"
p577
sS'DAL'
p578
S"<class 'pydal.base.DAL'>"
p579
sS'IS_IN_SET'
p580
S"<class 'gluon.validators.IS_IN_SET'>"
p581
sS'TWITTER_HASH'
p582
S"'web2py'"
p583
sS'IS_UPLOAD_FILENAME'
p584
S"<class 'gluon.validators.IS_UPLOAD_FILENAME'>"
p585
sS'time'
p586
S"<module 'time' (built-in)>"
p587
sS'regex_space'
p588
S'<_sre.SRE_Pattern object>'
p589
sS'regex_extend'
p590
S'<_sre.SRE_Pattern object>'
p591
sS'ASSIGNJS'
p592
S'<function ASSIGNJS>'
p593
sS're'
p594
S"<module 're' from 'C:\\Python27\\lib\\re.pyc'>"
p595
sS'IS_DECIMAL_IN_RANGE'
p596
S"<class 'gluon.validators.IS_DECIMAL_IN_RANGE'>"
p597
sssS'traceback'
p598
S'Traceback (most recent call last):\n  File "E:\\Google Drive\\Projects\\web2py\\gluon\\restricted.py", line 227, in restricted\n    etype, evalue, tb = sys.exc_info()\n  File "E:\\Google Drive\\Projects\\web2py\\applications\\admin\\views\\default/design.html", line 578, in <module>\nNameError: name \'iteritems\' is not defined\n'
p599
s.