(dp1
S'output'
p2
S"<class 'smtplib.SMTPAuthenticationError'> (535, '5.7.8 Username and Password not accepted. Learn more at\\n5.7.8  https://support.google.com/mail/?p=BadCredentials c19sm15459319pfd.85 - gsmtp')"
p3
sS'layer'
p4
S'C:\\Users\\h.p\\Desktop\\web2py_src\\web2py\\applications\\UGC\\controllers/default.py'
p5
sS'code'
p6
S'# -*- coding: utf-8 -*-\n# this file is released under public domain and you can use without limitations\n\n# -------------------------------------------------------------------------\n# This is a sample controller\n# - index is the default action of any application\n# - user is required for authentication and authorization\n# - download is for downloading files uploaded in the db (does streaming)\n# -------------------------------------------------------------------------\nids=local_import(\'set_ids\')\ncats=local_import(\'catFun\')\nsnd=local_import(\'sendMail\')\ndef sendMailToColleges(pid):\n     for probs in db(db.Problems.p_id==pid).select(db.Problems.p_loc):\n            for emails in db(db.Colleges.c_loc==probs.p_loc).select(db.Colleges.c_email):\n                snd.send(emails.c_email,pid)\ndef checkMail(form):\n    chk=local_import(\'verifyMail\')\n    if chk.check_mail(form.vars.p_userid):\n        return\n    else:\n        form.errors.p_userid = \'Invalid Email Address, check your email address carefully\'\n\ndef upload_sol():\n    auth.requires_login()\n    db.Solutions.s_id.default=ids.generate_sid(request)\n    form=SQLFORM(db.Solutions)\n    if form.process().accepted:\n        response.flash=\'Thank You, Your Solution Has Been Successfully Submitted\'\n        redirect(URL(r=request,f=\'index\'))\n    elif form.errors:\n        response.flash=\'Please Check The Form Again\'\n    else:\n        response.flash=\'Upload Your Solution\'\n    return dict(form=form)\ndef view_prob():\n    idss=request.get_vars\n    prob=db(db.Problems.p_id==idss).select()\n    return idss\ndef Browse_problem():\n    export_classes = dict(csv=True, json=True, html=False,\n                          tsv=False, xml=False, csv_with_hidden_cols=False,\n                          tsv_with_hidden_cols=False)\n    prob=db(db.Problems).select()\n    form=SQLFORM.smartgrid(db.Problems,searchable=False,sortable=True,paginate=8,selectable=None,exportclasses=export_classes,maxtextlength =64,csv=False)\n    #category=cats.catProb("DEVELOP A DIGITAL SOLUTION")\n    return locals()\n\ndef upload_prob():\n    Prob=db.Problems(request.args(0))\n    pp=ids.generate_pid(request)\n    db.Problems.p_id.default=pp\n    form=SQLFORM(db.Problems)\n    #db.Problems.posted_on.default=request.now\n    if form.process(onvalidation=checkMail).accepted:\n        response.flash=\'Thank You, Your Problem Has Been Successfully Submitted\'\n        #MAIL SENT MENTHOD HERE\n        sendMailToColleges(pp)\n        \n        #redirect(URL(r=request,f=\'index\'))\n    elif form.errors:\n        ids.destroy_pid(request)\n        response.flash=\'Please Check The Form Again\'\n    else:\n        ids.destroy_pid(request)\n        response.flash=\'Upload Your Problem\'\n    return locals()\n#def cat():\n\ndef index():\n    """\n    example action using the internationalization operator T and flash\n    rendered by views/default/index.html or views/generic.html\n\n    if you need a simple wiki simply replace the two lines below with:\n    #return auth.wiki()\n\n    #response.flash = T("Hello World")\n    #temp=local_import(\'states\')\n    #ans=temp.getStates()\n    #dist=temp.getDist(\'Bihar\')\n    #return locals()\n    """\n    #form = SQLFORM(db.areacode)\n    #if form.accepts(request.vars,session):\n        #response.flash = "Got it"\n    #elif form.errors:\n        #response.flash = str(form.errors)\n    #return dict(form=form)\n    form=SQLFORM(db.Locate)\n    return dict(form=form)\n\n\ndef user():\n    """\n    exposes:\n    http://..../[app]/default/user/login\n    http://..../[app]/default/user/logout\n    http://..../[app]/default/user/register\n    http://..../[app]/default/user/profile\n    http://..../[app]/default/user/retrieve_password\n    http://..../[app]/default/user/change_password\n    http://..../[app]/default/user/bulk_register\n    use @auth.requires_login()\n        @auth.requires_membership(\'group name\')\n        @auth.requires_permission(\'read\',\'table name\',record_id)\n    to decorate functions that need access control\n    also notice there is http://..../[app]/appadmin/manage/auth to allow administrator to manage users\n    """\n    form=SQLFORM(db.Logins)\n    return dict(form=form)\n\n\n@cache.action()\ndef download():\n    """\n    allows downloading of uploaded files\n    http://..../[app]/default/download/[filename]\n    """\n    return response.download(request, db)\n\n\ndef call():\n    """\n    exposes services. for example:\n    http://..../[app]/default/call/jsonrpc\n    decorate with @services.jsonrpc the functions to expose\n    supports xml, json, xmlrpc, jsonrpc, amfrpc, rss, csv\n    """\n    return service()\n\ndef abc():\n    return dict(message=\'I am working\')\n\ndef superadmin():\n    form1=SQLFORM(db.Colleges)\n    if form1.process().accepted:\n        response.flash=\'Thank You, New College Has Been Successfully Added\'\n        redirect(URL(r=request,f=\'superadmin\'))\n    elif form1.errors:\n        response.flash=\'Please Check The Form Again\'\n    else:\n        response.flash=\'Add New College Here\'\n    return dict(form1=form1)\n@service.csv\n@service.rss\n@service.xml\ndef browse_prob_admin():\n    export_classes = dict(csv=True, json=True, html=False,\n                          tsv=False, xml=False, csv_with_hidden_cols=False,\n                          tsv_with_hidden_cols=False)\n    prob = SQLFORM.grid(db.Problems, showbuttontext=False,user_signature=False)\n    return dict(prob=prob)\n\nresponse._vars=response._caller(upload_prob)\n'
p7
sS'snapshot'
p8
(dp9
S'exception'
p10
(dp11
S'__module__'
p12
S"'smtplib'"
p13
sS'__getslice__'
p14
S"<method-wrapper '__getslice__' of SMTPAuthenticationError object>"
p15
sS'__str__'
p16
S"<method-wrapper '__str__' of SMTPAuthenticationError object>"
p17
sS'__reduce__'
p18
S'<built-in method __reduce__ of SMTPAuthenticationError object>'
p19
sS'__dict__'
p20
S"{'smtp_code': 535, 'smtp_error': '5.7.8 Username and Password not accepted. Learn ...ail/?p=BadCredentials c19sm15459319pfd.85 - gsmtp'}"
p21
sS'__sizeof__'
p22
S'<built-in method __sizeof__ of SMTPAuthenticationError object>'
p23
sS'__weakref__'
p24
S'None'
p25
sS'__init__'
p26
S"<bound method SMTPAuthenticationError.__init__ o.../?p=BadCredentials c19sm15459319pfd.85 - gsmtp')>"
p27
sS'__setattr__'
p28
S"<method-wrapper '__setattr__' of SMTPAuthenticationError object>"
p29
sS'__reduce_ex__'
p30
S'<built-in method __reduce_ex__ of SMTPAuthenticationError object>'
p31
sS'__new__'
p32
S'<built-in method __new__ of type object>'
p33
sS'__format__'
p34
S'<built-in method __format__ of SMTPAuthenticationError object>'
p35
sS'__class__'
p36
S"<class 'smtplib.SMTPAuthenticationError'>"
p37
sS'__doc__'
p38
S"'Authentication error.\\n\\n    Most probably the ser... username/password\\n    combination provided.\\n    '"
p39
sS'smtp_error'
p40
S"'5.7.8 Username and Password not accepted. Learn ...ail/?p=BadCredentials c19sm15459319pfd.85 - gsmtp'"
p41
sS'__getitem__'
p42
S"<method-wrapper '__getitem__' of SMTPAuthenticationError object>"
p43
sS'__setstate__'
p44
S'<built-in method __setstate__ of SMTPAuthenticationError object>'
p45
sS'__getattribute__'
p46
S"<method-wrapper '__getattribute__' of SMTPAuthenticationError object>"
p47
sS'args'
p48
S"(535, '5.7.8 Username and Password not accepted. Learn ...ail/?p=BadCredentials c19sm15459319pfd.85 - gsmtp')"
p49
sS'__subclasshook__'
p50
S'<built-in method __subclasshook__ of type object>'
p51
sS'__unicode__'
p52
S'<built-in method __unicode__ of SMTPAuthenticationError object>'
p53
sS'smtp_code'
p54
S'535'
p55
sS'__delattr__'
p56
S"<method-wrapper '__delattr__' of SMTPAuthenticationError object>"
p57
sS'__repr__'
p58
S"<method-wrapper '__repr__' of SMTPAuthenticationError object>"
p59
sS'__hash__'
p60
S"<method-wrapper '__hash__' of SMTPAuthenticationError object>"
p61
ssS'evalue'
p62
S"(535, '5.7.8 Username and Password not accepted. Learn more at\\n5.7.8  https://support.google.com/mail/?p=BadCredentials c19sm15459319pfd.85 - gsmtp')"
p63
sS'request'
p64
cgluon.html
XML_unpickle
p65
(S's6f\x00\x00<div><table><tr><td style="font-weight:bold;vertical-align:top;">ajax</td><td style="vertical-align:top;">:</td><td><div>False</div></td></tr><tr><td style="font-weight:bold;vertical-align:top;">application</td><td style="vertical-align:top;">:</td><td><div>UGC</div></td></tr><tr><td style="font-weight:bold;vertical-align:top;">args</td><td style="vertical-align:top;">:</td><td><div><table></table></div></td></tr><tr><td style="font-weight:bold;vertical-align:top;">cid</td><td style="vertical-align:top;">:</td><td><div>None</div></td></tr><tr><td style="font-weight:bold;vertical-align:top;">client</td><td style="vertical-align:top;">:</td><td><div>10.10.120.139</div></td></tr><tr><td style="font-weight:bold;vertical-align:top;">controller</td><td style="vertical-align:top;">:</td><td><div>default</div></td></tr><tr><td style="font-weight:bold;vertical-align:top;">cookies</td><td style="vertical-align:top;">:</td><td><div><table><tr><td style="font-weight:bold;vertical-align:top;">session_id_admin</td><td style="vertical-align:top;">:</td><td><div>10.10.120.139-3709825c-b30a-4f13-bc75-a1bcfc2a3e99<table><tr><td style="font-weight:bold;vertical-align:top;">comment</td><td style="vertical-align:top;">:</td><td><div></div></td></tr><tr><td style="font-weight:bold;vertical-align:top;">domain</td><td style="vertical-align:top;">:</td><td><div></div></td></tr><tr><td style="font-weight:bold;vertical-align:top;">expires</td><td style="vertical-align:top;">:</td><td><div></div></td></tr><tr><td style="font-weight:bold;vertical-align:top;">httponly</td><td style="vertical-align:top;">:</td><td><div></div></td></tr><tr><td style="font-weight:bold;vertical-align:top;">max-age</td><td style="vertical-align:top;">:</td><td><div></div></td></tr><tr><td style="font-weight:bold;vertical-align:top;">path</td><td style="vertical-align:top;">:</td><td><div></div></td></tr><tr><td style="font-weight:bold;vertical-align:top;">secure</td><td style="vertical-align:top;">:</td><td><div></div></td></tr><tr><td style="font-weight:bold;vertical-align:top;">version</td><td style="vertical-align:top;">:</td><td><div></div></td></tr></table></div></td></tr><tr><td style="font-weight:bold;vertical-align:top;">session_id_ugc</td><td style="vertical-align:top;">:</td><td><div>10.10.120.139-1575bcd3-21ff-48da-85e1-d94d017d4230<table><tr><td style="font-weight:bold;vertical-align:top;">comment</td><td style="vertical-align:top;">:</td><td><div></div></td></tr><tr><td style="font-weight:bold;vertical-align:top;">domain</td><td style="vertical-align:top;">:</td><td><div></div></td></tr><tr><td style="font-weight:bold;vertical-align:top;">expires</td><td style="vertical-align:top;">:</td><td><div></div></td></tr><tr><td style="font-weight:bold;vertical-align:top;">httponly</td><td style="vertical-align:top;">:</td><td><div></div></td></tr><tr><td style="font-weight:bold;vertical-align:top;">max-age</td><td style="vertical-align:top;">:</td><td><div></div></td></tr><tr><td style="font-weight:bold;vertical-align:top;">path</td><td style="vertical-align:top;">:</td><td><div></div></td></tr><tr><td style="font-weight:bold;vertical-align:top;">secure</td><td style="vertical-align:top;">:</td><td><div></div></td></tr><tr><td style="font-weight:bold;vertical-align:top;">version</td><td style="vertical-align:top;">:</td><td><div></div></td></tr></table></div></td></tr><tr><td style="font-weight:bold;vertical-align:top;">session_id_welcome</td><td style="vertical-align:top;">:</td><td><div>10.10.120.139-0e20430c-46dd-46e4-976d-3c782ffa81cd<table><tr><td style="font-weight:bold;vertical-align:top;">comment</td><td style="vertical-align:top;">:</td><td><div></div></td></tr><tr><td style="font-weight:bold;vertical-align:top;">domain</td><td style="vertical-align:top;">:</td><td><div></div></td></tr><tr><td style="font-weight:bold;vertical-align:top;">expires</td><td style="vertical-align:top;">:</td><td><div></div></td></tr><tr><td style="font-weight:bold;vertical-align:top;">httponly</td><td style="vertical-align:top;">:</td><td><div></div></td></tr><tr><td style="font-weight:bold;vertical-align:top;">max-age</td><td style="vertical-align:top;">:</td><td><div></div></td></tr><tr><td style="font-weight:bold;vertical-align:top;">path</td><td style="vertical-align:top;">:</td><td><div></div></td></tr><tr><td style="font-weight:bold;vertical-align:top;">secure</td><td style="vertical-align:top;">:</td><td><div></div></td></tr><tr><td style="font-weight:bold;vertical-align:top;">version</td><td style="vertical-align:top;">:</td><td><div></div></td></tr></table></div></td></tr></table></div></td></tr><tr><td style="font-weight:bold;vertical-align:top;">env</td><td style="vertical-align:top;">:</td><td><div><table><tr><td style="font-weight:bold;vertical-align:top;">CONTENT_LENGTH</td><td style="vertical-align:top;">:</td><td><div>668</div></td></tr><tr><td style="font-weight:bold;vertical-align:top;">CONTENT_TYPE</td><td style="vertical-align:top;">:</td><td><div>multipart/form-data; boundary=----WebKitFormBoundary2fj5N1BBFpEtMeI1</div></td></tr><tr><td style="font-weight:bold;vertical-align:top;">HTTP_ACCEPT</td><td style="vertical-align:top;">:</td><td><div>text/html,application/xhtml+xml,application/xml;q=0.9,image/webp,*/*;q=0.8</div></td></tr><tr><td style="font-weight:bold;vertical-align:top;">HTTP_ACCEPT_ENCODING</td><td style="vertical-align:top;">:</td><td><div>gzip, deflate</div></td></tr><tr><td style="font-weight:bold;vertical-align:top;">HTTP_ACCEPT_LANGUAGE</td><td style="vertical-align:top;">:</td><td><div>en-GB,en-US;q=0.8,en;q=0.6</div></td></tr><tr><td style="font-weight:bold;vertical-align:top;">HTTP_CACHE_CONTROL</td><td style="vertical-align:top;">:</td><td><div>max-age=0</div></td></tr><tr><td style="font-weight:bold;vertical-align:top;">HTTP_CONNECTION</td><td style="vertical-align:top;">:</td><td><div>keep-alive</div></td></tr><tr><td style="font-weight:bold;vertical-align:top;">HTTP_CONTENT_LENGTH</td><td style="vertical-align:top;">:</td><td><div>668</div></td></tr><tr><td style="font-weight:bold;vertical-align:top;">HTTP_CONTENT_TYPE</td><td style="vertical-align:top;">:</td><td><div>multipart/form-data; boundary=----WebKitFormBoundary2fj5N1BBFpEtMeI1</div></td></tr><tr><td style="font-weight:bold;vertical-align:top;">HTTP_COOKIE</td><td style="vertical-align:top;">:</td><td><div>session_id_welcome=10.10.120.139-0e20430c-46dd-46e4-976d-3c782ffa81cd; session_id_admin=10.10.120.139-3709825c-b30a-4f13-bc75-a1bcfc2a3e99; session_id_ugc=10.10.120.139-1575bcd3-21ff-48da-85e1-d94d017d4230</div></td></tr><tr><td style="font-weight:bold;vertical-align:top;">HTTP_HOST</td><td style="vertical-align:top;">:</td><td><div>10.10.120.139:8000</div></td></tr><tr><td style="font-weight:bold;vertical-align:top;">HTTP_ORIGIN</td><td style="vertical-align:top;">:</td><td><div>http://10.10.120.139:8000</div></td></tr><tr><td style="font-weight:bold;vertical-align:top;">HTTP_REFERER</td><td style="vertical-align:top;">:</td><td><div>http://10.10.120.139:8000/UGC/default/upload_prob</div></td></tr><tr><td style="font-weight:bold;vertical-align:top;">HTTP_UPGRADE_INSECURE_REQUESTS</td><td style="vertical-align:top;">:</td><td><div>1</div></td></tr><tr><td style="font-weight:bold;vertical-align:top;">HTTP_USER_AGENT</td><td style="vertical-align:top;">:</td><td><div>Mozilla/5.0 (Windows NT 10.0; Win64; x64) AppleWebKit/537.36 (KHTML, like Gecko) Chrome/56.0.2924.87 Safari/537.36</div></td></tr><tr><td style="font-weight:bold;vertical-align:top;">PATH_INFO</td><td style="vertical-align:top;">:</td><td><div>/UGC/default/upload_prob</div></td></tr><tr><td style="font-weight:bold;vertical-align:top;">QUERY_STRING</td><td style="vertical-align:top;">:</td><td><div></div></td></tr><tr><td style="font-weight:bold;vertical-align:top;">REMOTE_ADDR</td><td style="vertical-align:top;">:</td><td><div>10.10.120.139</div></td></tr><tr><td style="font-weight:bold;vertical-align:top;">REMOTE_PORT</td><td style="vertical-align:top;">:</td><td><div>54219</div></td></tr><tr><td style="font-weight:bold;vertical-align:top;">REQUEST_METHOD</td><td style="vertical-align:top;">:</td><td><div>POST</div></td></tr><tr><td style="font-weight:bold;vertical-align:top;">SCRIPT_NAME</td><td style="vertical-align:top;">:</td><td><div></div></td></tr><tr><td style="font-weight:bold;vertical-align:top;">SERVER_NAME</td><td style="vertical-align:top;">:</td><td><div>hp</div></td></tr><tr><td style="font-weight:bold;vertical-align:top;">SERVER_PORT</td><td style="vertical-align:top;">:</td><td><div>8000</div></td></tr><tr><td style="font-weight:bold;vertical-align:top;">SERVER_PROTOCOL</td><td style="vertical-align:top;">:</td><td><div>HTTP/1.1</div></td></tr><tr><td style="font-weight:bold;vertical-align:top;">SERVER_SOFTWARE</td><td style="vertical-align:top;">:</td><td><div>Rocket 1.2.6</div></td></tr><tr><td style="font-weight:bold;vertical-align:top;">app_folders</td><td style="vertical-align:top;">:</td><td><div>set([&#x27;C:\\\\Users\\\\h.p\\\\Desktop\\\\web2py_src\\\\web2py\\\\applications\\\\UGC\\\\&#x27;, &#x27;C:\\\\Users\\\\h.p\\\\Desktop\\\\web2py_src\\\\web2py\\\\applications\\\\welcome\\\\&#x27;, &#x27;C:\\\\Users\\\\h.p\\\\Desktop\\\\web2py_src\\\\web2py\\\\applications\\\\admin\\\\&#x27;])</div></td></tr><tr><td style="font-weight:bold;vertical-align:top;">applications_parent</td><td style="vertical-align:top;">:</td><td><div>C:\\Users\\h.p\\Desktop\\web2py_src\\web2py</div></td></tr><tr><td style="font-weight:bold;vertical-align:top;">cmd_args</td><td style="vertical-align:top;">:</td><td><div><table></table></div></td></tr><tr><td style="font-weight:bold;vertical-align:top;">cmd_options</td><td style="vertical-align:top;">:</td><td><div>&lt;Values at 0x3e3bd00: {&#x27;verbose&#x27;: False, &#x27;ip&#x27;: &#x27;127.0.0.1&#x27;, &#x27;debuglevel&#x27;: 30, &#x27;with_scheduler&#x27;: False, &#x27;shutdown_timeout&#x27;: 5, &#x27;taskbar&#x27;: False, &#x27;with_coverage&#x27;: False, &#x27;pid_filename&#x27;: &#x27;httpserver.pid&#x27;, &#x27;maxthreads&#x27;: None, &#x27;softcron&#x27;: False, &#x27;server_name&#x27;: &#x27;hp&#x27;, &#x27;bpython&#x27;: False, &#x27;nogui&#x27;: False, &#x27;port&#x27;: 8000, &#x27;print_errors&#x27;: False, &#x27;extcron&#x27;: False, &#x27;runcron&#x27;: False, &#x27;run_system_tests&#x27;: False, &#x27;test&#x27;: None, &#x27;folder&#x27;: &#x27;C:\\\\Users\\\\h.p\\\\Desktop\\\\web2py_src\\\\web2py&#x27;, &#x27;config&#x27;: &#x27;&#x27;, &#x27;minthreads&#x27;: None, &#x27;shell&#x27;: None, &#x27;run&#x27;: &#x27;&#x27;, &#x27;log_filename&#x27;: &#x27;httpserver.log&#x27;, &#x27;profiler_dir&#x27;: None, &#x27;args&#x27;: [&#x27;&#x27;], &#x27;socket_timeout&#x27;: 5, &#x27;ssl_ca_certificate&#x27;: None, &#x27;scheduler&#x27;: None, &#x27;interfaces&#x27;: None, &#x27;ssl_private_key&#x27;: &#x27;&#x27;, &#x27;gae&#x27;: None, &#x27;password&#x27;: &#x27;******&#x27;, &#x27;request_queue_size&#x27;: 5, &#x27;ssl_certificate&#x27;: &#x27;&#x27;, &#x27;cronjob&#x27;: False, &#x27;numthreads&#x27;: None, &#x27;quiet&#x27;: False, &#x27;import_models&#x27;: False, &#x27;timeout&#x27;: 10, &#x27;plain&#x27;: False, &#x27;nobanner&#x27;: False}&gt;</div></td></tr><tr><td style="font-weight:bold;vertical-align:top;">content_length</td><td style="vertical-align:top;">:</td><td><div>668</div></td></tr><tr><td style="font-weight:bold;vertical-align:top;">content_type</td><td style="vertical-align:top;">:</td><td><div>multipart/form-data; boundary=----WebKitFormBoundary2fj5N1BBFpEtMeI1</div></td></tr><tr><td style="font-weight:bold;vertical-align:top;">db_sessions</td><td style="vertical-align:top;">:</td><td><div>set([])</div></td></tr><tr><td style="font-weight:bold;vertical-align:top;">debugging</td><td style="vertical-align:top;">:</td><td><div>True</div></td></tr><tr><td style="font-weight:bold;vertical-align:top;">gluon_parent</td><td style="vertical-align:top;">:</td><td><div>C:\\Users\\h.p\\Desktop\\web2py_src\\web2py</div></td></tr><tr><td style="font-weight:bold;vertical-align:top;">http_accept</td><td style="vertical-align:top;">:</td><td><div>text/html,application/xhtml+xml,application/xml;q=0.9,image/webp,*/*;q=0.8</div></td></tr><tr><td style="font-weight:bold;vertical-align:top;">http_accept_encoding</td><td style="vertical-align:top;">:</td><td><div>gzip, deflate</div></td></tr><tr><td style="font-weight:bold;vertical-align:top;">http_accept_language</td><td style="vertical-align:top;">:</td><td><div>en-GB,en-US;q=0.8,en;q=0.6</div></td></tr><tr><td style="font-weight:bold;vertical-align:top;">http_cache_control</td><td style="vertical-align:top;">:</td><td><div>max-age=0</div></td></tr><tr><td style="font-weight:bold;vertical-align:top;">http_connection</td><td style="vertical-align:top;">:</td><td><div>keep-alive</div></td></tr><tr><td style="font-weight:bold;vertical-align:top;">http_content_length</td><td style="vertical-align:top;">:</td><td><div>668</div></td></tr><tr><td style="font-weight:bold;vertical-align:top;">http_content_type</td><td style="vertical-align:top;">:</td><td><div>multipart/form-data; boundary=----WebKitFormBoundary2fj5N1BBFpEtMeI1</div></td></tr><tr><td style="font-weight:bold;vertical-align:top;">http_cookie</td><td style="vertical-align:top;">:</td><td><div>session_id_welcome=10.10.120.139-0e20430c-46dd-46e4-976d-3c782ffa81cd; session_id_admin=10.10.120.139-3709825c-b30a-4f13-bc75-a1bcfc2a3e99; session_id_ugc=10.10.120.139-1575bcd3-21ff-48da-85e1-d94d017d4230</div></td></tr><tr><td style="font-weight:bold;vertical-align:top;">http_host</td><td style="vertical-align:top;">:</td><td><div>10.10.120.139:8000</div></td></tr><tr><td style="font-weight:bold;vertical-align:top;">http_origin</td><td style="vertical-align:top;">:</td><td><div>http://10.10.120.139:8000</div></td></tr><tr><td style="font-weight:bold;vertical-align:top;">http_referer</td><td style="vertical-align:top;">:</td><td><div>http://10.10.120.139:8000/UGC/default/upload_prob</div></td></tr><tr><td style="font-weight:bold;vertical-align:top;">http_upgrade_insecure_requests</td><td style="vertical-align:top;">:</td><td><div>1</div></td></tr><tr><td style="font-weight:bold;vertical-align:top;">http_user_agent</td><td style="vertical-align:top;">:</td><td><div>Mozilla/5.0 (Windows NT 10.0; Win64; x64) AppleWebKit/537.36 (KHTML, like Gecko) Chrome/56.0.2924.87 Safari/537.36</div></td></tr><tr><td style="font-weight:bold;vertical-align:top;">is_jython</td><td style="vertical-align:top;">:</td><td><div>False</div></td></tr><tr><td style="font-weight:bold;vertical-align:top;">is_pypy</td><td style="vertical-align:top;">:</td><td><div>False</div></td></tr><tr><td style="font-weight:bold;vertical-align:top;">is_source</td><td style="vertical-align:top;">:</td><td><div>True</div></td></tr><tr><td style="font-weight:bold;vertical-align:top;">local_hosts</td><td style="vertical-align:top;">:</td><td><div><table><tr><td><div>10.10.120.139</div></td></tr><tr><td><div>hp</div></td></tr><tr><td><div>::ffff:127.0.0.1</div></td></tr><tr><td><div>::1</div></td></tr><tr><td><div>fe80::c59:c3cf:e5a5:38cd%21</div></td></tr><tr><td><div>192.168.137.1</div></td></tr><tr><td><div>fe80::a94d:c158:e36:a8a4%15</div></td></tr><tr><td><div>2001:0:5ef5:79fd:3c7c:1dcd:f5f5:8774</div></td></tr><tr><td><div>fe80::3c7c:1dcd:f5f5:8774%19</div></td></tr><tr><td><div>127.0.0.1</div></td></tr></table></div></td></tr><tr><td style="font-weight:bold;vertical-align:top;">path_info</td><td style="vertical-align:top;">:</td><td><div>/UGC/default/upload_prob</div></td></tr><tr><td style="font-weight:bold;vertical-align:top;">query_string</td><td style="vertical-align:top;">:</td><td><div></div></td></tr><tr><td style="font-weight:bold;vertical-align:top;">remote_addr</td><td style="vertical-align:top;">:</td><td><div>10.10.120.139</div></td></tr><tr><td style="font-weight:bold;vertical-align:top;">remote_port</td><td style="vertical-align:top;">:</td><td><div>54219</div></td></tr><tr><td style="font-weight:bold;vertical-align:top;">request_method</td><td style="vertical-align:top;">:</td><td><div>POST</div></td></tr><tr><td style="font-weight:bold;vertical-align:top;">request_uri</td><td style="vertical-align:top;">:</td><td><div>/UGC/default/upload_prob</div></td></tr><tr><td style="font-weight:bold;vertical-align:top;">script_name</td><td style="vertical-align:top;">:</td><td><div></div></td></tr><tr><td style="font-weight:bold;vertical-align:top;">server_name</td><td style="vertical-align:top;">:</td><td><div>hp</div></td></tr><tr><td style="font-weight:bold;vertical-align:top;">server_port</td><td style="vertical-align:top;">:</td><td><div>8000</div></td></tr><tr><td style="font-weight:bold;vertical-align:top;">server_protocol</td><td style="vertical-align:top;">:</td><td><div>HTTP/1.1</div></td></tr><tr><td style="font-weight:bold;vertical-align:top;">server_software</td><td style="vertical-align:top;">:</td><td><div>Rocket 1.2.6</div></td></tr><tr><td style="font-weight:bold;vertical-align:top;">web2py_path</td><td style="vertical-align:top;">:</td><td><div>C:\\Users\\h.p\\Desktop\\web2py_src\\web2py</div></td></tr><tr><td style="font-weight:bold;vertical-align:top;">web2py_version</td><td style="vertical-align:top;">:</td><td><div>2.14.6-stable+timestamp.2016.05.10.00.21.47</div></td></tr><tr><td style="font-weight:bold;vertical-align:top;">wsgi.errors</td><td style="vertical-align:top;">:</td><td><div>&lt;open file &#x27;&lt;stderr&gt;&#x27;, mode &#x27;w&#x27; at 0x00D7D0D0&gt;</div></td></tr><tr><td style="font-weight:bold;vertical-align:top;">wsgi.file_wrapper</td><td style="vertical-align:top;">:</td><td><div>&lt;class wsgiref.util.FileWrapper at 0x03E25688&gt;</div></td></tr><tr><td style="font-weight:bold;vertical-align:top;">wsgi.input</td><td style="vertical-align:top;">:</td><td><div>&lt;socket._fileobject object at 0x14461BF0&gt;</div></td></tr><tr><td style="font-weight:bold;vertical-align:top;">wsgi.multiprocess</td><td style="vertical-align:top;">:</td><td><div>False</div></td></tr><tr><td style="font-weight:bold;vertical-align:top;">wsgi.multithread</td><td style="vertical-align:top;">:</td><td><div>True</div></td></tr><tr><td style="font-weight:bold;vertical-align:top;">wsgi.run_once</td><td style="vertical-align:top;">:</td><td><div>False</div></td></tr><tr><td style="font-weight:bold;vertical-align:top;">wsgi.url_scheme</td><td style="vertical-align:top;">:</td><td><div>http</div></td></tr><tr><td style="font-weight:bold;vertical-align:top;">wsgi.version</td><td style="vertical-align:top;">:</td><td><div><table><tr><td><div>1</div></td></tr><tr><td><div>0</div></td></tr></table></div></td></tr><tr><td style="font-weight:bold;vertical-align:top;">wsgi_errors</td><td style="vertical-align:top;">:</td><td><div>&lt;open file &#x27;&lt;stderr&gt;&#x27;, mode &#x27;w&#x27; at 0x00D7D0D0&gt;</div></td></tr><tr><td style="font-weight:bold;vertical-align:top;">wsgi_file_wrapper</td><td style="vertical-align:top;">:</td><td><div>&lt;class wsgiref.util.FileWrapper at 0x03E25688&gt;</div></td></tr><tr><td style="font-weight:bold;vertical-align:top;">wsgi_input</td><td style="vertical-align:top;">:</td><td><div>&lt;socket._fileobject object at 0x14461BF0&gt;</div></td></tr><tr><td style="font-weight:bold;vertical-align:top;">wsgi_multiprocess</td><td style="vertical-align:top;">:</td><td><div>False</div></td></tr><tr><td style="font-weight:bold;vertical-align:top;">wsgi_multithread</td><td style="vertical-align:top;">:</td><td><div>True</div></td></tr><tr><td style="font-weight:bold;vertical-align:top;">wsgi_run_once</td><td style="vertical-align:top;">:</td><td><div>False</div></td></tr><tr><td style="font-weight:bold;vertical-align:top;">wsgi_url_scheme</td><td style="vertical-align:top;">:</td><td><div>http</div></td></tr><tr><td style="font-weight:bold;vertical-align:top;">wsgi_version</td><td style="vertical-align:top;">:</td><td><div><table><tr><td><div>1</div></td></tr><tr><td><div>0</div></td></tr></table></div></td></tr></table></div></td></tr><tr><td style="font-weight:bold;vertical-align:top;">extension</td><td style="vertical-align:top;">:</td><td><div>html</div></td></tr><tr><td style="font-weight:bold;vertical-align:top;">folder</td><td style="vertical-align:top;">:</td><td><div>C:\\Users\\h.p\\Desktop\\web2py_src\\web2py\\applications\\UGC\\</div></td></tr><tr><td style="font-weight:bold;vertical-align:top;">function</td><td style="vertical-align:top;">:</td><td><div>upload_prob</div></td></tr><tr><td style="font-weight:bold;vertical-align:top;">global_settings</td><td style="vertical-align:top;">:</td><td><div><table><tr><td style="font-weight:bold;vertical-align:top;">app_folders</td><td style="vertical-align:top;">:</td><td><div>set([&#x27;C:\\\\Users\\\\h.p\\\\Desktop\\\\web2py_src\\\\web2py\\\\applications\\\\UGC\\\\&#x27;, &#x27;C:\\\\Users\\\\h.p\\\\Desktop\\\\web2py_src\\\\web2py\\\\applications\\\\welcome\\\\&#x27;, &#x27;C:\\\\Users\\\\h.p\\\\Desktop\\\\web2py_src\\\\web2py\\\\applications\\\\admin\\\\&#x27;])</div></td></tr><tr><td style="font-weight:bold;vertical-align:top;">applications_parent</td><td style="vertical-align:top;">:</td><td><div>C:\\Users\\h.p\\Desktop\\web2py_src\\web2py</div></td></tr><tr><td style="font-weight:bold;vertical-align:top;">cmd_args</td><td style="vertical-align:top;">:</td><td><div><table></table></div></td></tr><tr><td style="font-weight:bold;vertical-align:top;">cmd_options</td><td style="vertical-align:top;">:</td><td><div>&lt;Values at 0x3e3bd00: {&#x27;verbose&#x27;: False, &#x27;ip&#x27;: &#x27;127.0.0.1&#x27;, &#x27;debuglevel&#x27;: 30, &#x27;with_scheduler&#x27;: False, &#x27;shutdown_timeout&#x27;: 5, &#x27;taskbar&#x27;: False, &#x27;with_coverage&#x27;: False, &#x27;pid_filename&#x27;: &#x27;httpserver.pid&#x27;, &#x27;maxthreads&#x27;: None, &#x27;softcron&#x27;: False, &#x27;server_name&#x27;: &#x27;hp&#x27;, &#x27;bpython&#x27;: False, &#x27;nogui&#x27;: False, &#x27;port&#x27;: 8000, &#x27;print_errors&#x27;: False, &#x27;extcron&#x27;: False, &#x27;runcron&#x27;: False, &#x27;run_system_tests&#x27;: False, &#x27;test&#x27;: None, &#x27;folder&#x27;: &#x27;C:\\\\Users\\\\h.p\\\\Desktop\\\\web2py_src\\\\web2py&#x27;, &#x27;config&#x27;: &#x27;&#x27;, &#x27;minthreads&#x27;: None, &#x27;shell&#x27;: None, &#x27;run&#x27;: &#x27;&#x27;, &#x27;log_filename&#x27;: &#x27;httpserver.log&#x27;, &#x27;profiler_dir&#x27;: None, &#x27;args&#x27;: [&#x27;&#x27;], &#x27;socket_timeout&#x27;: 5, &#x27;ssl_ca_certificate&#x27;: None, &#x27;scheduler&#x27;: None, &#x27;interfaces&#x27;: None, &#x27;ssl_private_key&#x27;: &#x27;&#x27;, &#x27;gae&#x27;: None, &#x27;password&#x27;: &#x27;******&#x27;, &#x27;request_queue_size&#x27;: 5, &#x27;ssl_certificate&#x27;: &#x27;&#x27;, &#x27;cronjob&#x27;: False, &#x27;numthreads&#x27;: None, &#x27;quiet&#x27;: False, &#x27;import_models&#x27;: False, &#x27;timeout&#x27;: 10, &#x27;plain&#x27;: False, &#x27;nobanner&#x27;: False}&gt;</div></td></tr><tr><td style="font-weight:bold;vertical-align:top;">db_sessions</td><td style="vertical-align:top;">:</td><td><div>set([])</div></td></tr><tr><td style="font-weight:bold;vertical-align:top;">debugging</td><td style="vertical-align:top;">:</td><td><div>True</div></td></tr><tr><td style="font-weight:bold;vertical-align:top;">gluon_parent</td><td style="vertical-align:top;">:</td><td><div>C:\\Users\\h.p\\Desktop\\web2py_src\\web2py</div></td></tr><tr><td style="font-weight:bold;vertical-align:top;">is_jython</td><td style="vertical-align:top;">:</td><td><div>False</div></td></tr><tr><td style="font-weight:bold;vertical-align:top;">is_pypy</td><td style="vertical-align:top;">:</td><td><div>False</div></td></tr><tr><td style="font-weight:bold;vertical-align:top;">is_source</td><td style="vertical-align:top;">:</td><td><div>True</div></td></tr><tr><td style="font-weight:bold;vertical-align:top;">local_hosts</td><td style="vertical-align:top;">:</td><td><div><table><tr><td><div>10.10.120.139</div></td></tr><tr><td><div>hp</div></td></tr><tr><td><div>::ffff:127.0.0.1</div></td></tr><tr><td><div>::1</div></td></tr><tr><td><div>fe80::c59:c3cf:e5a5:38cd%21</div></td></tr><tr><td><div>192.168.137.1</div></td></tr><tr><td><div>fe80::a94d:c158:e36:a8a4%15</div></td></tr><tr><td><div>2001:0:5ef5:79fd:3c7c:1dcd:f5f5:8774</div></td></tr><tr><td><div>fe80::3c7c:1dcd:f5f5:8774%19</div></td></tr><tr><td><div>127.0.0.1</div></td></tr></table></div></td></tr><tr><td style="font-weight:bold;vertical-align:top;">web2py_version</td><td style="vertical-align:top;">:</td><td><div>2.14.6-stable+timestamp.2016.05.10.00.21.47</div></td></tr></table></div></td></tr><tr><td style="font-weight:bold;vertical-align:top;">is_https</td><td style="vertical-align:top;">:</td><td><div>False</div></td></tr><tr><td style="font-weight:bold;vertical-align:top;">is_local</td><td style="vertical-align:top;">:</td><td><div>True</div></td></tr><tr><td style="font-weight:bold;vertical-align:top;">is_restful</td><td style="vertical-align:top;">:</td><td><div>False</div></td></tr><tr><td style="font-weight:bold;vertical-align:top;">is_scheduler</td><td style="vertical-align:top;">:</td><td><div>False</div></td></tr><tr><td style="font-weight:bold;vertical-align:top;">is_shell</td><td style="vertical-align:top;">:</td><td><div>False</div></td></tr><tr><td style="font-weight:bold;vertical-align:top;">now</td><td style="vertical-align:top;">:</td><td><div>datetime.datetime(2017, 3, 26, 14, 26, 54, 842000)</div></td></tr><tr><td style="font-weight:bold;vertical-align:top;">raw_args</td><td style="vertical-align:top;">:</td><td><div></div></td></tr><tr><td style="font-weight:bold;vertical-align:top;">raw_extension</td><td style="vertical-align:top;">:</td><td><div>None</div></td></tr><tr><td style="font-weight:bold;vertical-align:top;">url</td><td style="vertical-align:top;">:</td><td><div>/UGC/default/upload_prob</div></td></tr><tr><td style="font-weight:bold;vertical-align:top;">utcnow</td><td style="vertical-align:top;">:</td><td><div>datetime.datetime(2017, 3, 26, 8, 56, 54, 842000)</div></td></tr><tr><td style="font-weight:bold;vertical-align:top;">wsgi</td><td style="vertical-align:top;">:</td><td><div>&lt;gluon.main.LazyWSGI object at 0x148551F0&gt;</div></td></tr></table></div>'
tRp66
sS'frames'
p67
(lp68
(dp69
S'file'
p70
S'C:\\Users\\h.p\\Desktop\\web2py_src\\web2py\\gluon\\restricted.py'
p71
sS'dump'
p72
(dp73
S'environment'
p74
S"{'A': <class 'gluon.html.A'>, 'ANY_OF': <class 'gluon.validators.ANY_OF'>, 'ASSIGNJS': <function ASSIGNJS>, 'AppConfig': <function AppConfig>, 'Auth': <class 'gluon.tools.Auth'>, 'B': <class 'gluon.html.B'>, 'BEAUTIFY': <class 'gluon.html.BEAUTIFY'>, 'BODY': <class 'gluon.html.BODY'>, 'BR': <class 'gluon.html.BR'>, 'BUTTON': <class 'gluon.html.BUTTON'>, ...}"
p75
sS'ccode'
p76
S'<code object <module> at 147A8380, file "C:\\User...pplications\\UGC\\controllers/default.py", line 10>'
p77
ssS'lnum'
p78
I227
sS'lines'
p79
(dp80
I224
S'            ccode = code'
p81
sI225
S'        else:'
p82
sI226
S'            ccode = compile2(code, layer)'
p83
sI227
S'        exec ccode in environment'
p84
sI228
S'    except HTTP:'
p85
sI229
S'        raise'
p86
sI230
S'    except RestrictedError:'
p87
sI231
S'        # do not encapsulate (obfuscate) the original RestrictedError'
p88
sI222
S'    try:'
p89
sI223
S'        if isinstance(code, types.CodeType):'
p90
ssS'call'
p91
S"(code='# -*- coding: utf-8 -*-\\n# this file is released ...b)\\n\\nresponse._vars=response._caller(upload_prob)\\n', environment={'A': <class 'gluon.html.A'>, 'ANY_OF': <class 'gluon.validators.ANY_OF'>, 'ASSIGNJS': <function ASSIGNJS>, 'AppConfig': <function AppConfig>, 'Auth': <class 'gluon.tools.Auth'>, 'B': <class 'gluon.html.B'>, 'BEAUTIFY': <class 'gluon.html.BEAUTIFY'>, 'BODY': <class 'gluon.html.BODY'>, 'BR': <class 'gluon.html.BR'>, 'BUTTON': <class 'gluon.html.BUTTON'>, ...}, layer=r'C:\\Users\\h.p\\Desktop\\web2py_src\\web2py\\applications\\UGC\\controllers/default.py')"
p92
sS'func'
p93
S'restricted'
p94
sa(dp95
g70
S'C:\\Users\\h.p\\Desktop\\web2py_src\\web2py\\applications\\UGC\\controllers\\default.py'
p96
sg72
(dp97
sg78
I155
sg79
(dp98
I144
S'    return dict(form1=form1)'
p99
sI145
S'@service.csv'
p100
sI146
S'@service.rss'
p101
sI147
S'@service.xml'
p102
sI148
S'def browse_prob_admin():'
p103
sI149
S'    export_classes = dict(csv=True, json=True, html=False,'
p104
sI150
S'                          tsv=False, xml=False, csv_with_hidden_cols=False,'
p105
sI151
S'                          tsv_with_hidden_cols=False)'
p106
sI152
S'    prob = SQLFORM.grid(db.Problems, showbuttontext=False,user_signature=False)'
p107
sI153
S'    return dict(prob=prob)'
p108
ssg91
S'()'
p109
sg93
S'<module>'
p110
sa(dp111
g70
S'C:\\Users\\h.p\\Desktop\\web2py_src\\web2py\\gluon\\globals.py'
p112
sg72
(dp113
S'self'
p114
S'undefined'
p115
sS'f'
S'<function upload_prob>'
p116
ssg78
I417
sg79
(dp117
I416
S'        self._vars = None'
p118
sI417
S'        self._caller = lambda f: f()'
p119
sI418
S'        self._view_environment = None'
p120
sI419
S'        self._custom_commit = None'
p121
sI420
S'        self._custom_rollback = None'
p122
sI421
S"        self.generic_patterns = ['*']"
p123
sI412
S"        self.flash = ''            # used by the default view layout"
p124
sI413
S'        self.meta = Storage()      # used by web2py_ajax.html'
p125
sI414
S'        self.menu = []             # used by the default view layout'
p126
sI415
S'        self.files = []            # used by web2py_ajax.html'
p127
ssg91
S'(f=<function upload_prob>)'
p128
sg93
S'<lambda>'
p129
sa(dp130
g70
S'C:\\Users\\h.p\\Desktop\\web2py_src\\web2py\\applications\\UGC\\controllers\\default.py'
p131
sg72
(dp132
S'pp'
p133
S'18'
p134
sS'global sendMailToColleges'
p135
S'<function sendMailToColleges>'
p136
ssg78
I58
sg79
(dp137
I53
S'    form=SQLFORM(db.Problems)'
p138
sI54
S'    #db.Problems.posted_on.default=request.now'
p139
sI55
S'    if form.process(onvalidation=checkMail).accepted:'
p140
sI56
S"        response.flash='Thank You, Your Problem Has Been Successfully Submitted'"
p141
sI57
S'        #MAIL SENT MENTHOD HERE'
p142
sI58
S'        sendMailToColleges(pp)'
p143
sI59
S''
sI60
S"        #redirect(URL(r=request,f='index'))"
p144
sI61
S'    elif form.errors:'
p145
sI62
S'        ids.destroy_pid(request)'
p146
ssg91
S'()'
p147
sg93
S'upload_prob'
p148
sa(dp149
g70
S'C:\\Users\\h.p\\Desktop\\web2py_src\\web2py\\applications\\UGC\\controllers\\default.py'
p150
sg72
(dp151
S'emails.c_email'
p152
S"'r1s3k2@gmail.com'"
p153
sS'global snd'
p154
S"<module 'applications.UGC.modules.sendMail' from 'applications\\UGC\\modules\\sendMail.pyc'>"
p155
sS'snd.send'
p156
S'<function send>'
p157
sS'pid'
p158
S'18'
p159
sS'emails'
p160
S"<Row {'c_email': 'r1s3k2@gmail.com'}>"
p161
ssg78
I16
sg79
(dp162
I11
S"cats=local_import('catFun')"
p163
sI12
S"snd=local_import('sendMail')"
p164
sI13
S'def sendMailToColleges(pid):'
p165
sI14
S'     for probs in db(db.Problems.p_id==pid).select(db.Problems.p_loc):'
p166
sI15
S'            for emails in db(db.Colleges.c_loc==probs.p_loc).select(db.Colleges.c_email):'
p167
sI16
S'                snd.send(emails.c_email,pid)'
p168
sI17
S'def checkMail(form):'
p169
sI18
S"    chk=local_import('verifyMail')"
p170
sI19
S'    if chk.check_mail(form.vars.p_userid):'
p171
sI20
S'        return'
p172
ssg91
S'(pid=18)'
p173
sg93
S'sendMailToColleges'
p174
sa(dp175
g70
S'C:\\Users\\h.p\\Desktop\\web2py_src\\web2py\\applications\\UGC\\modules\\sendMail.py'
p176
sg72
(dp177
S'mail'
p178
S'<smtplib.SMTP instance>'
p179
sS'mail.login'
p180
S'<bound method SMTP.login of <smtplib.SMTP instance>>'
p181
ssg78
I8
sg79
(dp182
I2
S'import smtplib'
p183
sI3
S'def send(x,y):'
p184
sI4
S"\tcontent='Dear college, new problem with problem id %s has arrived. Kindly have a look over it.' % y"
p185
sI5
S"\tmail=smtplib.SMTP('smtp.gmail.com',25)"
p186
sI6
S'\tmail.ehlo()'
p187
sI7
S'\tmail.starttls()'
p188
sI8
S"\tmail.login('knitishnitj@gmail.com','wa t.dkdja')"
p189
sI9
S"\tmail.sendmail('knitishnitj@gmail.com',x,content)"
p190
sI10
S'\tprint("Email sent")'
p191
sI11
S'\tmail.close()'
p192
ssg91
S"(x='r1s3k2@gmail.com', y=18)"
p193
sg93
S'send'
p194
sa(dp195
g70
S'C:\\Python27\\lib\\smtplib.py'
p196
sg72
(dp197
S'resp'
p198
S"'5.7.8 Username and Password not accepted. Learn ...ail/?p=BadCredentials c19sm15459319pfd.85 - gsmtp'"
p199
sS'code'
p200
S'535'
p201
sS'global SMTPAuthenticationError'
p202
S"<class 'smtplib.SMTPAuthenticationError'>"
p203
ssg78
I622
sg79
(dp204
I617
S'        elif authmethod is None:'
p205
sI618
S'            raise SMTPException("No suitable authentication method found.")'
p206
sI619
S'        if code not in (235, 503):'
p207
sI620
S"            # 235 == 'Authentication successful'"
p208
sI621
S"            # 503 == 'Error: already authenticated'"
p209
sI622
S'            raise SMTPAuthenticationError(code, resp)'
p210
sI623
S'        return (code, resp)'
p211
sI624
S''
sI625
S'    def starttls(self, keyfile=None, certfile=None):'
p212
sI626
S'        """Puts the connection to the SMTP server into TLS mode.'
p213
ssg91
S"(self=<smtplib.SMTP instance>, user='knitishnitj@gmail.com', password='wa t.dkdja')"
p214
sg93
S'login'
p215
sasS'pyver'
p216
S'Python 2.7.13: C:\\Python27\\python.exe (prefix: C:\\Python27)'
p217
sS'session'
p218
g65
(S's9\x01\x00\x00<div><table><tr><td style="font-weight:bold;vertical-align:top;">last_orderby</td><td style="vertical-align:top;">:</td><td><div>None</div></td></tr><tr><td style="font-weight:bold;vertical-align:top;">last_query</td><td style="vertical-align:top;">:</td><td><div>db.Colleges.id&gt;0</div></td></tr></table></div>'
tRp219
sS'etype'
p220
S"<class 'smtplib.SMTPAuthenticationError'>"
p221
sS'date'
p222
S'Sun Mar 26 14:26:59 2017'
p223
sS'response'
p224
g65
(S's\x88\x1f\x00\x00<div><table><tr><td style="font-weight:bold;vertical-align:top;">body</td><td style="vertical-align:top;">:</td><td><div>&lt;cStringIO.StringO object at 0x1463E8A0&gt;</div></td></tr><tr><td style="font-weight:bold;vertical-align:top;">cookies</td><td style="vertical-align:top;">:</td><td><div><table><tr><td style="font-weight:bold;vertical-align:top;">session_id_ugc</td><td style="vertical-align:top;">:</td><td><div>10.10.120.139-1575bcd3-21ff-48da-85e1-d94d017d4230<table><tr><td style="font-weight:bold;vertical-align:top;">comment</td><td style="vertical-align:top;">:</td><td><div></div></td></tr><tr><td style="font-weight:bold;vertical-align:top;">domain</td><td style="vertical-align:top;">:</td><td><div></div></td></tr><tr><td style="font-weight:bold;vertical-align:top;">expires</td><td style="vertical-align:top;">:</td><td><div></div></td></tr><tr><td style="font-weight:bold;vertical-align:top;">httponly</td><td style="vertical-align:top;">:</td><td><div></div></td></tr><tr><td style="font-weight:bold;vertical-align:top;">max-age</td><td style="vertical-align:top;">:</td><td><div></div></td></tr><tr><td style="font-weight:bold;vertical-align:top;">path</td><td style="vertical-align:top;">:</td><td><div>/</div></td></tr><tr><td style="font-weight:bold;vertical-align:top;">secure</td><td style="vertical-align:top;">:</td><td><div></div></td></tr><tr><td style="font-weight:bold;vertical-align:top;">version</td><td style="vertical-align:top;">:</td><td><div></div></td></tr></table></div></td></tr></table></div></td></tr><tr><td style="font-weight:bold;vertical-align:top;">delimiters</td><td style="vertical-align:top;">:</td><td><div><table><tr><td><div>{{</div></td></tr><tr><td><div>}}</div></td></tr></table></div></td></tr><tr><td style="font-weight:bold;vertical-align:top;">files</td><td style="vertical-align:top;">:</td><td><div><table></table></div></td></tr><tr><td style="font-weight:bold;vertical-align:top;">flash</td><td style="vertical-align:top;">:</td><td><div>Thank You, Your Problem Has Been Successfully Submitted</div></td></tr><tr><td style="font-weight:bold;vertical-align:top;">form_label_separator</td><td style="vertical-align:top;">:</td><td><div></div></td></tr><tr><td style="font-weight:bold;vertical-align:top;">formstyle</td><td style="vertical-align:top;">:</td><td><div>bootstrap3_inline</div></td></tr><tr><td style="font-weight:bold;vertical-align:top;">generic_patterns</td><td style="vertical-align:top;">:</td><td><div><table><tr><td><div>*</div></td></tr></table></div></td></tr><tr><td style="font-weight:bold;vertical-align:top;">google_analytics_id</td><td style="vertical-align:top;">:</td><td><div>None</div></td></tr><tr><td style="font-weight:bold;vertical-align:top;">headers</td><td style="vertical-align:top;">:</td><td><div><table><tr><td style="font-weight:bold;vertical-align:top;">X-Powered-By</td><td style="vertical-align:top;">:</td><td><div>web2py</div></td></tr></table></div></td></tr><tr><td style="font-weight:bold;vertical-align:top;">menu</td><td style="vertical-align:top;">:</td><td><div><table><tr><td><div><table><tr><td><div>Home</div></td></tr><tr><td><div>False</div></td></tr><tr><td><div>/UGC/default/index</div></td></tr><tr><td><div><table></table></div></td></tr></table></div></td></tr><tr><td><div><table><tr><td><div>About Us</div></td></tr><tr><td><div>False</div></td></tr><tr><td><div>/UGC/default/upload_prob</div></td></tr></table></div></td></tr><tr><td><div><table><tr><td><div>Upload Problem</div></td></tr><tr><td><div>False</div></td></tr><tr><td><div>/UGC/default/upload_prob</div></td></tr></table></div></td></tr><tr><td><div><table><tr><td><div>Upload Solution</div></td></tr><tr><td><div>False</div></td></tr><tr><td><div>/UGC/default/upload_sol</div></td></tr></table></div></td></tr><tr><td><div><table><tr><td><div>Browse Problem</div></td></tr><tr><td><div>False</div></td></tr><tr><td><div>/UGC/default/Browse_problem</div></td></tr></table></div></td></tr></table></div></td></tr><tr><td style="font-weight:bold;vertical-align:top;">meta</td><td style="vertical-align:top;">:</td><td><div><table><tr><td style="font-weight:bold;vertical-align:top;">author</td><td style="vertical-align:top;">:</td><td><div>&lt;&gt;</div></td></tr><tr><td style="font-weight:bold;vertical-align:top;">description</td><td style="vertical-align:top;">:</td><td><div>a cool new app</div></td></tr><tr><td style="font-weight:bold;vertical-align:top;">generator</td><td style="vertical-align:top;">:</td><td><div>Web2py Web Framework</div></td></tr><tr><td style="font-weight:bold;vertical-align:top;">keywords</td><td style="vertical-align:top;">:</td><td><div><table><tr><td><div>web2py</div></td></tr><tr><td><div>python</div></td></tr><tr><td><div>framework</div></td></tr></table></div></td></tr></table></div></td></tr><tr><td style="font-weight:bold;vertical-align:top;">models_to_run</td><td style="vertical-align:top;">:</td><td><div><table><tr><td><div>^\\w+\\.py$</div></td></tr><tr><td><div>^default/\\w+\\.py$</div></td></tr><tr><td><div>^default/upload_prob/\\w+\\.py$</div></td></tr></table></div></td></tr><tr><td style="font-weight:bold;vertical-align:top;">postprocessing</td><td style="vertical-align:top;">:</td><td><div><table></table></div></td></tr><tr><td style="font-weight:bold;vertical-align:top;">session_client</td><td style="vertical-align:top;">:</td><td><div>10.10.120.139</div></td></tr><tr><td style="font-weight:bold;vertical-align:top;">session_cookie_compression_level</td><td style="vertical-align:top;">:</td><td><div>None</div></td></tr><tr><td style="font-weight:bold;vertical-align:top;">session_cookie_expires</td><td style="vertical-align:top;">:</td><td><div>None</div></td></tr><tr><td style="font-weight:bold;vertical-align:top;">session_data_name</td><td style="vertical-align:top;">:</td><td><div>session_data_ugc</div></td></tr><tr><td style="font-weight:bold;vertical-align:top;">session_file</td><td style="vertical-align:top;">:</td><td><div>&lt;open file &#x27;C:\\\\Users\\\\h.p\\\\Desktop\\\\web2py_src\\\\web2py\\\\applications\\\\UGC\\\\sessions\\\\10f\\\\0c6\\\\10.10.120.139-1575bcd3-21ff-48da-85e1-d94d017d4230&#x27;, mode &#x27;rb+&#x27; at 0x148326A8&gt;</div></td></tr><tr><td style="font-weight:bold;vertical-align:top;">session_filename</td><td style="vertical-align:top;">:</td><td><div>C:\\Users\\h.p\\Desktop\\web2py_src\\web2py\\applications\\UGC\\sessions\\10.10.120.139-1575bcd3-21ff-48da-85e1-d94d017d4230</div></td></tr><tr><td style="font-weight:bold;vertical-align:top;">session_hash</td><td style="vertical-align:top;">:</td><td><div>2bd58bdfd6a02fcab4754d5b50ecb873</div></td></tr><tr><td style="font-weight:bold;vertical-align:top;">session_id</td><td style="vertical-align:top;">:</td><td><div>10.10.120.139-1575bcd3-21ff-48da-85e1-d94d017d4230</div></td></tr><tr><td style="font-weight:bold;vertical-align:top;">session_id_name</td><td style="vertical-align:top;">:</td><td><div>session_id_ugc</div></td></tr><tr><td style="font-weight:bold;vertical-align:top;">session_locked</td><td style="vertical-align:top;">:</td><td><div>True</div></td></tr><tr><td style="font-weight:bold;vertical-align:top;">session_masterapp</td><td style="vertical-align:top;">:</td><td><div>UGC</div></td></tr><tr><td style="font-weight:bold;vertical-align:top;">session_new</td><td style="vertical-align:top;">:</td><td><div>False</div></td></tr><tr><td style="font-weight:bold;vertical-align:top;">session_storage_type</td><td style="vertical-align:top;">:</td><td><div>file</div></td></tr><tr><td style="font-weight:bold;vertical-align:top;">status</td><td style="vertical-align:top;">:</td><td><div>200</div></td></tr><tr><td style="font-weight:bold;vertical-align:top;">subtitle</td><td style="vertical-align:top;">:</td><td><div></div></td></tr><tr><td style="font-weight:bold;vertical-align:top;">title</td><td style="vertical-align:top;">:</td><td><div>Ugc</div></td></tr><tr><td style="font-weight:bold;vertical-align:top;">view</td><td style="vertical-align:top;">:</td><td><div>default/upload_prob.html</div></td></tr></table></div>'
tRp225
sS'locals'
p226
(dp227
g6
S'535'
p228
sS'resp'
p229
S"'5.7.8 Username and Password not accepted. Learn ...ail/?p=BadCredentials c19sm15459319pfd.85 - gsmtp'"
p230
sS'authmethod'
p231
S"'PLAIN'"
p232
sS'method'
p233
S"'PLAIN'"
p234
sS'AUTH_PLAIN'
p235
S"'PLAIN'"
p236
sS'encode_cram_md5'
p237
S'<function encode_cram_md5>'
p238
sS'user'
p239
S"'knitishnitj@gmail.com'"
p240
sS'authlist'
p241
S"['LOGIN', 'PLAIN', 'XOAUTH2', 'PLAIN-CLIENTTOKEN', 'OAUTHBEARER', 'XOAUTH']"
p242
sS'preferred_auths'
p243
S"['CRAM-MD5', 'PLAIN', 'LOGIN']"
p244
sS'AUTH_LOGIN'
p245
S"'LOGIN'"
p246
sS'password'
p247
S"'wa t.dkdja'"
p248
sS'AUTH_CRAM_MD5'
p249
S"'CRAM-MD5'"
p250
sS'self'
p251
S'<smtplib.SMTP instance>'
p252
sS'encode_plain'
p253
S'<function encode_plain>'
p254
sssS'traceback'
p255
S'Traceback (most recent call last):\n  File "C:\\Users\\h.p\\Desktop\\web2py_src\\web2py\\gluon\\restricted.py", line 227, in restricted\n    exec ccode in environment\n  File "C:\\Users\\h.p\\Desktop\\web2py_src\\web2py\\applications\\UGC\\controllers/default.py", line 155, in <module>\n  File "C:\\Users\\h.p\\Desktop\\web2py_src\\web2py\\gluon\\globals.py", line 417, in <lambda>\n    self._caller = lambda f: f()\n  File "C:\\Users\\h.p\\Desktop\\web2py_src\\web2py\\applications\\UGC\\controllers/default.py", line 58, in upload_prob\n    sendMailToColleges(pp)\n  File "C:\\Users\\h.p\\Desktop\\web2py_src\\web2py\\applications\\UGC\\controllers/default.py", line 16, in sendMailToColleges\n    snd.send(emails.c_email,pid)\n  File "applications\\UGC\\modules\\sendMail.py", line 8, in send\n    mail.login(\'knitishnitj@gmail.com\',\'wa t.dkdja\')\n  File "C:\\Python27\\lib\\smtplib.py", line 622, in login\n    raise SMTPAuthenticationError(code, resp)\nSMTPAuthenticationError: (535, \'5.7.8 Username and Password not accepted. Learn more at\\n5.7.8  https://support.google.com/mail/?p=BadCredentials c19sm15459319pfd.85 - gsmtp\')\n'
p256
s.